ARM GAS  C:\Users\andre\AppData\Local\Temp\cch2mtfe.s 			page 1


   1              		.syntax unified
   2              		.cpu cortex-m3
   3              		.fpu softvfp
   4              		.eabi_attribute 20, 1
   5              		.eabi_attribute 21, 1
   6              		.eabi_attribute 23, 3
   7              		.eabi_attribute 24, 1
   8              		.eabi_attribute 25, 1
   9              		.eabi_attribute 26, 1
  10              		.eabi_attribute 30, 1
  11              		.eabi_attribute 34, 1
  12              		.eabi_attribute 18, 4
  13              		.thumb
  14              		.syntax unified
  15              		.file	"getDistance.c"
  16              		.text
  17              	.Ltext0:
  18              		.cfi_sections	.debug_frame
  19              		.global	__aeabi_dmul
  20              		.global	__aeabi_dsub
  21              		.global	__aeabi_dadd
  22              		.global	__aeabi_ddiv
  23              		.section	.text.getDistancex,"ax",%progbits
  24              		.align	2
  25              		.global	getDistancex
  26              		.thumb
  27              		.thumb_func
  28              		.type	getDistancex, %function
  29              	getDistancex:
  30              	.LFB1:
  31              		.file 1 "getDistance.c"
   1:getDistance.c **** /* ========================================
   2:getDistance.c ****  *
   3:getDistance.c ****  * Copyright YOUR COMPANY, THE YEAR
   4:getDistance.c ****  * All Rights Reserved
   5:getDistance.c ****  * UNPUBLISHED, LICENSED SOFTWARE.
   6:getDistance.c ****  *
   7:getDistance.c ****  * CONFIDENTIAL AND PROPRIETARY INFORMATION
   8:getDistance.c ****  * WHICH IS THE PROPERTY OF your company.
   9:getDistance.c ****  *
  10:getDistance.c ****  * ========================================
  11:getDistance.c **** */
  12:getDistance.c **** 
  13:getDistance.c **** /* [] END OF FILE */
  14:getDistance.c **** 
  15:getDistance.c **** #include "getDistance.h"
  16:getDistance.c **** 
  17:getDistance.c **** 
  18:getDistance.c **** double getDistancex(double a, double b, double c)
  19:getDistance.c **** {
  32              		.loc 1 19 0
  33              		.cfi_startproc
  34              		@ args = 8, pretend = 0, frame = 0
  35              		@ frame_needed = 0, uses_anonymous_args = 0
  36              	.LVL0:
  37 0000 2DE9F843 		push	{r3, r4, r5, r6, r7, r8, r9, lr}
  38              		.cfi_def_cfa_offset 32
ARM GAS  C:\Users\andre\AppData\Local\Temp\cch2mtfe.s 			page 2


  39              		.cfi_offset 3, -32
  40              		.cfi_offset 4, -28
  41              		.cfi_offset 5, -24
  42              		.cfi_offset 6, -20
  43              		.cfi_offset 7, -16
  44              		.cfi_offset 8, -12
  45              		.cfi_offset 9, -8
  46              		.cfi_offset 14, -4
  47 0004 0446     		mov	r4, r0
  48 0006 0D46     		mov	r5, r1
  49 0008 1646     		mov	r6, r2
  50 000a 1F46     		mov	r7, r3
  20:getDistance.c **** 	double B1 = -(b * b) + a * a + c * c;
  51              		.loc 1 20 0
  52 000c 0246     		mov	r2, r0
  53              	.LVL1:
  54 000e 0B46     		mov	r3, r1
  55 0010 FFF7FEFF 		bl	__aeabi_dmul
  56              	.LVL2:
  57 0014 8046     		mov	r8, r0
  58 0016 8946     		mov	r9, r1
  59 0018 3246     		mov	r2, r6
  60 001a 3B46     		mov	r3, r7
  61 001c 3046     		mov	r0, r6
  62 001e 3946     		mov	r1, r7
  63 0020 FFF7FEFF 		bl	__aeabi_dmul
  64              	.LVL3:
  65 0024 0246     		mov	r2, r0
  66 0026 0B46     		mov	r3, r1
  67 0028 4046     		mov	r0, r8
  68 002a 4946     		mov	r1, r9
  69 002c FFF7FEFF 		bl	__aeabi_dsub
  70              	.LVL4:
  71 0030 0646     		mov	r6, r0
  72 0032 0F46     		mov	r7, r1
  73 0034 DDE90823 		ldrd	r2, [sp, #32]
  74 0038 1046     		mov	r0, r2
  75 003a 1946     		mov	r1, r3
  76 003c FFF7FEFF 		bl	__aeabi_dmul
  77              	.LVL5:
  78 0040 0246     		mov	r2, r0
  79 0042 0B46     		mov	r3, r1
  80 0044 3046     		mov	r0, r6
  81 0046 3946     		mov	r1, r7
  82 0048 FFF7FEFF 		bl	__aeabi_dadd
  83              	.LVL6:
  84 004c 0646     		mov	r6, r0
  85 004e 0F46     		mov	r7, r1
  86              	.LVL7:
  21:getDistance.c **** 	double B2 = 2 * a*c;
  87              		.loc 1 21 0
  88 0050 2246     		mov	r2, r4
  89 0052 2B46     		mov	r3, r5
  90 0054 2046     		mov	r0, r4
  91 0056 2946     		mov	r1, r5
  92 0058 FFF7FEFF 		bl	__aeabi_dadd
  93              	.LVL8:
ARM GAS  C:\Users\andre\AppData\Local\Temp\cch2mtfe.s 			page 3


  94 005c 0246     		mov	r2, r0
  95 005e 0B46     		mov	r3, r1
  96 0060 DDE90801 		ldrd	r0, [sp, #32]
  97 0064 FFF7FEFF 		bl	__aeabi_dmul
  98              	.LVL9:
  22:getDistance.c **** 	double B3 = B1 / B2;
  99              		.loc 1 22 0
 100 0068 0246     		mov	r2, r0
 101 006a 0B46     		mov	r3, r1
 102 006c 3046     		mov	r0, r6
 103              	.LVL10:
 104 006e 3946     		mov	r1, r7
 105 0070 FFF7FEFF 		bl	__aeabi_ddiv
 106              	.LVL11:
  23:getDistance.c **** 	double B = 90-((acos(B3)))*(360 / 2 / pi);
 107              		.loc 1 23 0
 108 0074 FFF7FEFF 		bl	acos
 109              	.LVL12:
 110 0078 11A3     		adr	r3, .L3
 111 007a D3E90023 		ldrd	r2, [r3]
 112 007e FFF7FEFF 		bl	__aeabi_dmul
 113              	.LVL13:
 114 0082 0246     		mov	r2, r0
 115 0084 0B46     		mov	r3, r1
 116 0086 0020     		movs	r0, #0
 117 0088 1149     		ldr	r1, .L3+16
 118 008a FFF7FEFF 		bl	__aeabi_dsub
 119              	.LVL14:
  24:getDistance.c **** 	double C = 90;
  25:getDistance.c **** 
  26:getDistance.c **** 	double x1 = sin(B / 360 * 2 * pi) * a;
 120              		.loc 1 26 0
 121 008e 0022     		movs	r2, #0
 122 0090 104B     		ldr	r3, .L3+20
 123 0092 FFF7FEFF 		bl	__aeabi_ddiv
 124              	.LVL15:
 125 0096 0246     		mov	r2, r0
 126 0098 0B46     		mov	r3, r1
 127 009a FFF7FEFF 		bl	__aeabi_dadd
 128              	.LVL16:
 129 009e 0AA3     		adr	r3, .L3+8
 130 00a0 D3E90023 		ldrd	r2, [r3]
 131 00a4 FFF7FEFF 		bl	__aeabi_dmul
 132              	.LVL17:
 133 00a8 FFF7FEFF 		bl	sin
 134              	.LVL18:
 135 00ac 0246     		mov	r2, r0
 136 00ae 0B46     		mov	r3, r1
 137 00b0 2046     		mov	r0, r4
 138 00b2 2946     		mov	r1, r5
 139 00b4 FFF7FEFF 		bl	__aeabi_dmul
 140              	.LVL19:
  27:getDistance.c **** 	double x2 = sin(C / 360 * 2 * pi);
  28:getDistance.c **** 	double x = x1 / x2;
  29:getDistance.c **** 
  30:getDistance.c **** 	return x;
  31:getDistance.c **** }
ARM GAS  C:\Users\andre\AppData\Local\Temp\cch2mtfe.s 			page 4


 141              		.loc 1 31 0
 142 00b8 BDE8F883 		pop	{r3, r4, r5, r6, r7, r8, r9, pc}
 143              	.LVL20:
 144              	.L4:
 145 00bc AFF30080 		.align	3
 146              	.L3:
 147 00c0 F8C1631A 		.word	442745336
 148 00c4 DCA54C40 		.word	1078765020
 149 00c8 182D4454 		.word	1413754136
 150 00cc FB210940 		.word	1074340347
 151 00d0 00805640 		.word	1079410688
 152 00d4 00807640 		.word	1081507840
 153              		.cfi_endproc
 154              	.LFE1:
 155              		.size	getDistancex, .-getDistancex
 156              		.section	.text.getDistancey,"ax",%progbits
 157              		.align	2
 158              		.global	getDistancey
 159              		.thumb
 160              		.thumb_func
 161              		.type	getDistancey, %function
 162              	getDistancey:
 163              	.LFB2:
  32:getDistance.c **** 
  33:getDistance.c **** double getDistancey(double a, double b, double c)
  34:getDistance.c **** {
 164              		.loc 1 34 0
 165              		.cfi_startproc
 166              		@ args = 8, pretend = 0, frame = 0
 167              		@ frame_needed = 0, uses_anonymous_args = 0
 168              	.LVL21:
 169 0000 2DE9F843 		push	{r3, r4, r5, r6, r7, r8, r9, lr}
 170              		.cfi_def_cfa_offset 32
 171              		.cfi_offset 3, -32
 172              		.cfi_offset 4, -28
 173              		.cfi_offset 5, -24
 174              		.cfi_offset 6, -20
 175              		.cfi_offset 7, -16
 176              		.cfi_offset 8, -12
 177              		.cfi_offset 9, -8
 178              		.cfi_offset 14, -4
 179 0004 0446     		mov	r4, r0
 180 0006 0D46     		mov	r5, r1
 181 0008 1646     		mov	r6, r2
 182 000a 1F46     		mov	r7, r3
  35:getDistance.c **** 	double B1 = -(b * b) + a * a + c * c;
 183              		.loc 1 35 0
 184 000c 0246     		mov	r2, r0
 185              	.LVL22:
 186 000e 0B46     		mov	r3, r1
 187 0010 FFF7FEFF 		bl	__aeabi_dmul
 188              	.LVL23:
 189 0014 8046     		mov	r8, r0
 190 0016 8946     		mov	r9, r1
 191 0018 3246     		mov	r2, r6
 192 001a 3B46     		mov	r3, r7
 193 001c 3046     		mov	r0, r6
ARM GAS  C:\Users\andre\AppData\Local\Temp\cch2mtfe.s 			page 5


 194 001e 3946     		mov	r1, r7
 195 0020 FFF7FEFF 		bl	__aeabi_dmul
 196              	.LVL24:
 197 0024 0246     		mov	r2, r0
 198 0026 0B46     		mov	r3, r1
 199 0028 4046     		mov	r0, r8
 200 002a 4946     		mov	r1, r9
 201 002c FFF7FEFF 		bl	__aeabi_dsub
 202              	.LVL25:
 203 0030 0646     		mov	r6, r0
 204 0032 0F46     		mov	r7, r1
 205 0034 DDE90823 		ldrd	r2, [sp, #32]
 206 0038 1046     		mov	r0, r2
 207 003a 1946     		mov	r1, r3
 208 003c FFF7FEFF 		bl	__aeabi_dmul
 209              	.LVL26:
 210 0040 0246     		mov	r2, r0
 211 0042 0B46     		mov	r3, r1
 212 0044 3046     		mov	r0, r6
 213 0046 3946     		mov	r1, r7
 214 0048 FFF7FEFF 		bl	__aeabi_dadd
 215              	.LVL27:
 216 004c 0646     		mov	r6, r0
 217 004e 0F46     		mov	r7, r1
 218              	.LVL28:
  36:getDistance.c **** 	double B2 = 2 * a*c;
 219              		.loc 1 36 0
 220 0050 2246     		mov	r2, r4
 221 0052 2B46     		mov	r3, r5
 222 0054 2046     		mov	r0, r4
 223 0056 2946     		mov	r1, r5
 224 0058 FFF7FEFF 		bl	__aeabi_dadd
 225              	.LVL29:
 226 005c 0246     		mov	r2, r0
 227 005e 0B46     		mov	r3, r1
 228 0060 DDE90801 		ldrd	r0, [sp, #32]
 229 0064 FFF7FEFF 		bl	__aeabi_dmul
 230              	.LVL30:
  37:getDistance.c **** 	double B3 = B1 / B2;
 231              		.loc 1 37 0
 232 0068 0246     		mov	r2, r0
 233 006a 0B46     		mov	r3, r1
 234 006c 3046     		mov	r0, r6
 235              	.LVL31:
 236 006e 3946     		mov	r1, r7
 237 0070 FFF7FEFF 		bl	__aeabi_ddiv
 238              	.LVL32:
  38:getDistance.c **** 	double B = 90 - ((acos(B3)))*(360 / 2 / pi);
 239              		.loc 1 38 0
 240 0074 FFF7FEFF 		bl	acos
 241              	.LVL33:
 242 0078 15A3     		adr	r3, .L7
 243 007a D3E90023 		ldrd	r2, [r3]
 244 007e FFF7FEFF 		bl	__aeabi_dmul
 245              	.LVL34:
 246 0082 0246     		mov	r2, r0
 247 0084 0B46     		mov	r3, r1
ARM GAS  C:\Users\andre\AppData\Local\Temp\cch2mtfe.s 			page 6


 248 0086 0020     		movs	r0, #0
 249 0088 1549     		ldr	r1, .L7+16
 250 008a FFF7FEFF 		bl	__aeabi_dsub
 251              	.LVL35:
  39:getDistance.c **** 	double C = 90;
  40:getDistance.c **** 
  41:getDistance.c **** 	double A = 180 - (B + C);
 252              		.loc 1 41 0
 253 008e 0022     		movs	r2, #0
 254 0090 134B     		ldr	r3, .L7+16
 255 0092 FFF7FEFF 		bl	__aeabi_dadd
 256              	.LVL36:
 257 0096 0246     		mov	r2, r0
 258 0098 0B46     		mov	r3, r1
 259 009a 0020     		movs	r0, #0
 260 009c 1149     		ldr	r1, .L7+20
 261 009e FFF7FEFF 		bl	__aeabi_dsub
 262              	.LVL37:
  42:getDistance.c **** 	double y1 = sin(A / 360 * 2 * pi) * a;
 263              		.loc 1 42 0
 264 00a2 0022     		movs	r2, #0
 265 00a4 104B     		ldr	r3, .L7+24
 266 00a6 FFF7FEFF 		bl	__aeabi_ddiv
 267              	.LVL38:
 268 00aa 0246     		mov	r2, r0
 269 00ac 0B46     		mov	r3, r1
 270 00ae FFF7FEFF 		bl	__aeabi_dadd
 271              	.LVL39:
 272 00b2 09A3     		adr	r3, .L7+8
 273 00b4 D3E90023 		ldrd	r2, [r3]
 274 00b8 FFF7FEFF 		bl	__aeabi_dmul
 275              	.LVL40:
 276 00bc FFF7FEFF 		bl	sin
 277              	.LVL41:
 278 00c0 0246     		mov	r2, r0
 279 00c2 0B46     		mov	r3, r1
 280 00c4 2046     		mov	r0, r4
 281 00c6 2946     		mov	r1, r5
 282 00c8 FFF7FEFF 		bl	__aeabi_dmul
 283              	.LVL42:
  43:getDistance.c **** 	double y2 = sin(C / 360 * 2 * pi);
  44:getDistance.c **** 	double y = y1 / y2;
  45:getDistance.c **** 
  46:getDistance.c **** 	return y;
  47:getDistance.c **** }...
 284              		.loc 1 47 0
 285 00cc BDE8F883 		pop	{r3, r4, r5, r6, r7, r8, r9, pc}
 286              	.LVL43:
 287              	.L8:
 288              		.align	3
 289              	.L7:
 290 00d0 F8C1631A 		.word	442745336
 291 00d4 DCA54C40 		.word	1078765020
 292 00d8 182D4454 		.word	1413754136
 293 00dc FB210940 		.word	1074340347
 294 00e0 00805640 		.word	1079410688
 295 00e4 00806640 		.word	1080459264
ARM GAS  C:\Users\andre\AppData\Local\Temp\cch2mtfe.s 			page 7


 296 00e8 00807640 		.word	1081507840
 297              		.cfi_endproc
 298              	.LFE2:
 299              		.size	getDistancey, .-getDistancey
 300              		.text
 301              	.Letext0:
 302              		.file 2 "d:\\program files (x86)\\cypress\\psoc creator\\4.1\\psoc creator\\import\\gnu\\arm\\5.4.