ARM GAS  C:\Users\andre\AppData\Local\Temp\ccE9mtAK.s 			page 1


   1              		.syntax unified
   2              		.cpu cortex-m3
   3              		.fpu softvfp
   4              		.eabi_attribute 20, 1
   5              		.eabi_attribute 21, 1
   6              		.eabi_attribute 23, 3
   7              		.eabi_attribute 24, 1
   8              		.eabi_attribute 25, 1
   9              		.eabi_attribute 26, 1
  10              		.eabi_attribute 30, 1
  11              		.eabi_attribute 34, 1
  12              		.eabi_attribute 18, 4
  13              		.thumb
  14              		.syntax unified
  15              		.file	"stepperRight.c"
  16              		.text
  17              	.Ltext0:
  18              		.cfi_sections	.debug_frame
  19              		.section	.text.stepperRight,"ax",%progbits
  20              		.align	2
  21              		.global	stepperRight
  22              		.thumb
  23              		.thumb_func
  24              		.type	stepperRight, %function
  25              	stepperRight:
  26              	.LFB0:
  27              		.file 1 "stepperRight.c"
   1:stepperRight.c **** /* ========================================
   2:stepperRight.c ****  *
   3:stepperRight.c ****  * Copyright YOUR COMPANY, THE YEAR
   4:stepperRight.c ****  * All Rights Reserved
   5:stepperRight.c ****  * UNPUBLISHED, LICENSED SOFTWARE.
   6:stepperRight.c ****  *
   7:stepperRight.c ****  * CONFIDENTIAL AND PROPRIETARY INFORMATION
   8:stepperRight.c ****  * WHICH IS THE PROPERTY OF your company.
   9:stepperRight.c ****  *
  10:stepperRight.c ****  * ========================================
  11:stepperRight.c **** */
  12:stepperRight.c **** 
  13:stepperRight.c **** void stepperRight(int stepMode, int status, int hastighed)
  14:stepperRight.c **** {
  28              		.loc 1 14 0
  29              		.cfi_startproc
  30              		@ args = 0, pretend = 0, frame = 0
  31              		@ frame_needed = 0, uses_anonymous_args = 0
  32              	.LVL0:
  33 0000 38B5     		push	{r3, r4, r5, lr}
  34              		.cfi_def_cfa_offset 16
  35              		.cfi_offset 3, -16
  36              		.cfi_offset 4, -12
  37              		.cfi_offset 5, -8
  38              		.cfi_offset 14, -4
  39 0002 0C46     		mov	r4, r1
  40 0004 1546     		mov	r5, r2
  15:stepperRight.c **** 
  16:stepperRight.c ****         
  17:stepperRight.c ****              if(stepMode == 1) //Full mode
ARM GAS  C:\Users\andre\AppData\Local\Temp\ccE9mtAK.s 			page 2


  41              		.loc 1 17 0
  42 0006 0128     		cmp	r0, #1
  43 0008 7CD1     		bne	.L2
  18:stepperRight.c ****             {
  19:stepperRight.c ****                  if(status == 2)//Kører forlæns
  44              		.loc 1 19 0
  45 000a 0229     		cmp	r1, #2
  46 000c 3AD1     		bne	.L3
  47              	.LBB2:
  20:stepperRight.c ****                     {
  21:stepperRight.c ****                         //Step 1
  22:stepperRight.c ****                         A3_Write(1);
  48              		.loc 1 22 0
  49 000e FFF7FEFF 		bl	A3_Write
  50              	.LVL1:
  23:stepperRight.c ****                         A4_Write(0);
  51              		.loc 1 23 0
  52 0012 0020     		movs	r0, #0
  53 0014 FFF7FEFF 		bl	A4_Write
  54              	.LVL2:
  24:stepperRight.c ****                         B3_Write(0);
  55              		.loc 1 24 0
  56 0018 0020     		movs	r0, #0
  57 001a FFF7FEFF 		bl	B3_Write
  58              	.LVL3:
  25:stepperRight.c ****                         B4_Write(1);
  59              		.loc 1 25 0
  60 001e 0120     		movs	r0, #1
  61 0020 FFF7FEFF 		bl	B4_Write
  62              	.LVL4:
  26:stepperRight.c ****                         CyDelayUs(hastighed);
  63              		.loc 1 26 0
  64 0024 2846     		mov	r0, r5
  65 0026 FFF7FEFF 		bl	CyDelayUs
  66              	.LVL5:
  27:stepperRight.c ****                         
  28:stepperRight.c ****                         //Step 2
  29:stepperRight.c ****                         A3_Write(1);
  67              		.loc 1 29 0
  68 002a 0120     		movs	r0, #1
  69 002c FFF7FEFF 		bl	A3_Write
  70              	.LVL6:
  30:stepperRight.c ****                         A4_Write(1);
  71              		.loc 1 30 0
  72 0030 0120     		movs	r0, #1
  73 0032 FFF7FEFF 		bl	A4_Write
  74              	.LVL7:
  31:stepperRight.c ****                         B3_Write(0);
  75              		.loc 1 31 0
  76 0036 0020     		movs	r0, #0
  77 0038 FFF7FEFF 		bl	B3_Write
  78              	.LVL8:
  32:stepperRight.c ****                         B4_Write(0);
  79              		.loc 1 32 0
  80 003c 0020     		movs	r0, #0
  81 003e FFF7FEFF 		bl	B4_Write
  82              	.LVL9:
ARM GAS  C:\Users\andre\AppData\Local\Temp\ccE9mtAK.s 			page 3


  33:stepperRight.c ****                         CyDelayUs(hastighed);
  83              		.loc 1 33 0
  84 0042 2846     		mov	r0, r5
  85 0044 FFF7FEFF 		bl	CyDelayUs
  86              	.LVL10:
  34:stepperRight.c ****                                                            
  35:stepperRight.c ****                         //Step 3
  36:stepperRight.c ****                         A3_Write(0);
  87              		.loc 1 36 0
  88 0048 0020     		movs	r0, #0
  89 004a FFF7FEFF 		bl	A3_Write
  90              	.LVL11:
  37:stepperRight.c ****                         A4_Write(1);
  91              		.loc 1 37 0
  92 004e 0120     		movs	r0, #1
  93 0050 FFF7FEFF 		bl	A4_Write
  94              	.LVL12:
  38:stepperRight.c ****                         B3_Write(1);
  95              		.loc 1 38 0
  96 0054 0120     		movs	r0, #1
  97 0056 FFF7FEFF 		bl	B3_Write
  98              	.LVL13:
  39:stepperRight.c ****                         B4_Write(0);
  99              		.loc 1 39 0
 100 005a 0020     		movs	r0, #0
 101 005c FFF7FEFF 		bl	B4_Write
 102              	.LVL14:
  40:stepperRight.c ****                         CyDelayUs(hastighed);
 103              		.loc 1 40 0
 104 0060 2846     		mov	r0, r5
 105 0062 FFF7FEFF 		bl	CyDelayUs
 106              	.LVL15:
  41:stepperRight.c ****                                     
  42:stepperRight.c ****                                                          
  43:stepperRight.c ****                         //Step 4
  44:stepperRight.c ****                         A3_Write(0);
 107              		.loc 1 44 0
 108 0066 0020     		movs	r0, #0
 109 0068 FFF7FEFF 		bl	A3_Write
 110              	.LVL16:
  45:stepperRight.c ****                         A4_Write(0);
 111              		.loc 1 45 0
 112 006c 0020     		movs	r0, #0
 113 006e FFF7FEFF 		bl	A4_Write
 114              	.LVL17:
  46:stepperRight.c ****                         B3_Write(1);
 115              		.loc 1 46 0
 116 0072 0120     		movs	r0, #1
 117 0074 FFF7FEFF 		bl	B3_Write
 118              	.LVL18:
  47:stepperRight.c ****                         B4_Write(1);
 119              		.loc 1 47 0
 120 0078 0120     		movs	r0, #1
 121 007a FFF7FEFF 		bl	B4_Write
 122              	.LVL19:
  48:stepperRight.c ****                         CyDelayUs(hastighed);
 123              		.loc 1 48 0
ARM GAS  C:\Users\andre\AppData\Local\Temp\ccE9mtAK.s 			page 4


 124 007e 2846     		mov	r0, r5
 125 0080 FFF7FEFF 		bl	CyDelayUs
 126              	.LVL20:
 127              	.L3:
 128              	.LBE2:
  49:stepperRight.c ****                         
  50:stepperRight.c **** 
  51:stepperRight.c ****                         
  52:stepperRight.c **** 
  53:stepperRight.c ****                     }
  54:stepperRight.c ****                     
  55:stepperRight.c ****            
  56:stepperRight.c ****                     
  57:stepperRight.c ****                    if(status == 1) //Kører baglæns
 129              		.loc 1 57 0
 130 0084 012C     		cmp	r4, #1
 131 0086 40F0B481 		bne	.L1
 132              	.LBB3:
  58:stepperRight.c ****                     {
  59:stepperRight.c ****                         //Step 1
  60:stepperRight.c ****                         A3_Write(0);
 133              		.loc 1 60 0
 134 008a 0020     		movs	r0, #0
 135 008c FFF7FEFF 		bl	A3_Write
 136              	.LVL21:
  61:stepperRight.c ****                         A4_Write(0);
 137              		.loc 1 61 0
 138 0090 0020     		movs	r0, #0
 139 0092 FFF7FEFF 		bl	A4_Write
 140              	.LVL22:
  62:stepperRight.c ****                         B3_Write(1);
 141              		.loc 1 62 0
 142 0096 0120     		movs	r0, #1
 143 0098 FFF7FEFF 		bl	B3_Write
 144              	.LVL23:
  63:stepperRight.c ****                         B4_Write(1);
 145              		.loc 1 63 0
 146 009c 0120     		movs	r0, #1
 147 009e FFF7FEFF 		bl	B4_Write
 148              	.LVL24:
  64:stepperRight.c ****                         CyDelayUs(hastighed);
 149              		.loc 1 64 0
 150 00a2 2846     		mov	r0, r5
 151 00a4 FFF7FEFF 		bl	CyDelayUs
 152              	.LVL25:
  65:stepperRight.c ****                         
  66:stepperRight.c ****                         //Step 2
  67:stepperRight.c ****                         A3_Write(0);
 153              		.loc 1 67 0
 154 00a8 0020     		movs	r0, #0
 155 00aa FFF7FEFF 		bl	A3_Write
 156              	.LVL26:
  68:stepperRight.c ****                         A4_Write(1);
 157              		.loc 1 68 0
 158 00ae 0120     		movs	r0, #1
 159 00b0 FFF7FEFF 		bl	A4_Write
 160              	.LVL27:
ARM GAS  C:\Users\andre\AppData\Local\Temp\ccE9mtAK.s 			page 5


  69:stepperRight.c ****                         B3_Write(1);
 161              		.loc 1 69 0
 162 00b4 0120     		movs	r0, #1
 163 00b6 FFF7FEFF 		bl	B3_Write
 164              	.LVL28:
  70:stepperRight.c ****                         B4_Write(0);
 165              		.loc 1 70 0
 166 00ba 0020     		movs	r0, #0
 167 00bc FFF7FEFF 		bl	B4_Write
 168              	.LVL29:
  71:stepperRight.c ****                         CyDelayUs(hastighed);
 169              		.loc 1 71 0
 170 00c0 2846     		mov	r0, r5
 171 00c2 FFF7FEFF 		bl	CyDelayUs
 172              	.LVL30:
  72:stepperRight.c ****                                                            
  73:stepperRight.c ****                         //Step 3
  74:stepperRight.c ****                         A3_Write(1);
 173              		.loc 1 74 0
 174 00c6 0120     		movs	r0, #1
 175 00c8 FFF7FEFF 		bl	A3_Write
 176              	.LVL31:
  75:stepperRight.c ****                         A4_Write(1);
 177              		.loc 1 75 0
 178 00cc 0120     		movs	r0, #1
 179 00ce FFF7FEFF 		bl	A4_Write
 180              	.LVL32:
  76:stepperRight.c ****                         B3_Write(0);
 181              		.loc 1 76 0
 182 00d2 0020     		movs	r0, #0
 183 00d4 FFF7FEFF 		bl	B3_Write
 184              	.LVL33:
  77:stepperRight.c ****                         B4_Write(0);
 185              		.loc 1 77 0
 186 00d8 0020     		movs	r0, #0
 187 00da FFF7FEFF 		bl	B4_Write
 188              	.LVL34:
  78:stepperRight.c ****                         CyDelayUs(hastighed);
 189              		.loc 1 78 0
 190 00de 2846     		mov	r0, r5
 191 00e0 FFF7FEFF 		bl	CyDelayUs
 192              	.LVL35:
  79:stepperRight.c ****                                     
  80:stepperRight.c ****                                                          
  81:stepperRight.c ****                         //Step 4
  82:stepperRight.c ****                         A3_Write(1);
 193              		.loc 1 82 0
 194 00e4 0120     		movs	r0, #1
 195 00e6 FFF7FEFF 		bl	A3_Write
 196              	.LVL36:
  83:stepperRight.c ****                         A4_Write(0);
 197              		.loc 1 83 0
 198 00ea 0020     		movs	r0, #0
 199 00ec FFF7FEFF 		bl	A4_Write
 200              	.LVL37:
  84:stepperRight.c ****                         B3_Write(0);
 201              		.loc 1 84 0
ARM GAS  C:\Users\andre\AppData\Local\Temp\ccE9mtAK.s 			page 6


 202 00f0 0020     		movs	r0, #0
 203 00f2 FFF7FEFF 		bl	B3_Write
 204              	.LVL38:
  85:stepperRight.c ****                         B4_Write(1);
 205              		.loc 1 85 0
 206 00f6 0120     		movs	r0, #1
 207 00f8 FFF7FEFF 		bl	B4_Write
 208              	.LVL39:
  86:stepperRight.c ****                         CyDelayUs(hastighed);
 209              		.loc 1 86 0
 210 00fc 2846     		mov	r0, r5
 211 00fe FFF7FEFF 		bl	CyDelayUs
 212              	.LVL40:
 213 0102 38BD     		pop	{r3, r4, r5, pc}
 214              	.LVL41:
 215              	.L2:
 216              	.LBE3:
  87:stepperRight.c ****                         
  88:stepperRight.c **** 
  89:stepperRight.c **** 
  90:stepperRight.c ****                     }
  91:stepperRight.c ****                     
  92:stepperRight.c ****             
  93:stepperRight.c ****                     
  94:stepperRight.c ****             }
  95:stepperRight.c ****             else if(stepMode == 2) //Half mode
 217              		.loc 1 95 0
 218 0104 0228     		cmp	r0, #2
 219 0106 40F0F680 		bne	.L5
  96:stepperRight.c ****             {
  97:stepperRight.c ****                 
  98:stepperRight.c ****                 if(status == 2)//Kører forlæns
 220              		.loc 1 98 0
 221 010a 0229     		cmp	r1, #2
 222 010c 77D1     		bne	.L6
 223              	.LBB4:
  99:stepperRight.c ****                     {
 100:stepperRight.c ****                         //Step 1
 101:stepperRight.c ****                         A3_Write(0);
 224              		.loc 1 101 0
 225 010e 0020     		movs	r0, #0
 226              	.LVL42:
 227 0110 FFF7FEFF 		bl	A3_Write
 228              	.LVL43:
 102:stepperRight.c ****                         A4_Write(0);
 229              		.loc 1 102 0
 230 0114 0020     		movs	r0, #0
 231 0116 FFF7FEFF 		bl	A4_Write
 232              	.LVL44:
 103:stepperRight.c ****                         B3_Write(0);
 233              		.loc 1 103 0
 234 011a 0020     		movs	r0, #0
 235 011c FFF7FEFF 		bl	B3_Write
 236              	.LVL45:
 104:stepperRight.c ****                         B4_Write(1);
 237              		.loc 1 104 0
 238 0120 0120     		movs	r0, #1
ARM GAS  C:\Users\andre\AppData\Local\Temp\ccE9mtAK.s 			page 7


 239 0122 FFF7FEFF 		bl	B4_Write
 240              	.LVL46:
 105:stepperRight.c ****                         CyDelayUs(hastighed);
 241              		.loc 1 105 0
 242 0126 2846     		mov	r0, r5
 243 0128 FFF7FEFF 		bl	CyDelayUs
 244              	.LVL47:
 106:stepperRight.c ****                                     
 107:stepperRight.c ****                         //Step 2
 108:stepperRight.c ****                         A3_Write(1);
 245              		.loc 1 108 0
 246 012c 0120     		movs	r0, #1
 247 012e FFF7FEFF 		bl	A3_Write
 248              	.LVL48:
 109:stepperRight.c ****                         A4_Write(0);
 249              		.loc 1 109 0
 250 0132 0020     		movs	r0, #0
 251 0134 FFF7FEFF 		bl	A4_Write
 252              	.LVL49:
 110:stepperRight.c ****                         B3_Write(0);
 253              		.loc 1 110 0
 254 0138 0020     		movs	r0, #0
 255 013a FFF7FEFF 		bl	B3_Write
 256              	.LVL50:
 111:stepperRight.c ****                         B4_Write(1);
 257              		.loc 1 111 0
 258 013e 0120     		movs	r0, #1
 259 0140 FFF7FEFF 		bl	B4_Write
 260              	.LVL51:
 112:stepperRight.c ****                         CyDelayUs(hastighed);
 261              		.loc 1 112 0
 262 0144 2846     		mov	r0, r5
 263 0146 FFF7FEFF 		bl	CyDelayUs
 264              	.LVL52:
 113:stepperRight.c ****                                     
 114:stepperRight.c ****                         //Step 3
 115:stepperRight.c ****                         A3_Write(1);
 265              		.loc 1 115 0
 266 014a 0120     		movs	r0, #1
 267 014c FFF7FEFF 		bl	A3_Write
 268              	.LVL53:
 116:stepperRight.c ****                         A4_Write(0);
 269              		.loc 1 116 0
 270 0150 0020     		movs	r0, #0
 271 0152 FFF7FEFF 		bl	A4_Write
 272              	.LVL54:
 117:stepperRight.c ****                         B3_Write(0);
 273              		.loc 1 117 0
 274 0156 0020     		movs	r0, #0
 275 0158 FFF7FEFF 		bl	B3_Write
 276              	.LVL55:
 118:stepperRight.c ****                         B4_Write(0);
 277              		.loc 1 118 0
 278 015c 0020     		movs	r0, #0
 279 015e FFF7FEFF 		bl	B4_Write
 280              	.LVL56:
 119:stepperRight.c ****                         CyDelayUs(hastighed);
ARM GAS  C:\Users\andre\AppData\Local\Temp\ccE9mtAK.s 			page 8


 281              		.loc 1 119 0
 282 0162 2846     		mov	r0, r5
 283 0164 FFF7FEFF 		bl	CyDelayUs
 284              	.LVL57:
 120:stepperRight.c ****                                    
 121:stepperRight.c ****                         //Step 4
 122:stepperRight.c ****                         A3_Write(1);
 285              		.loc 1 122 0
 286 0168 0120     		movs	r0, #1
 287 016a FFF7FEFF 		bl	A3_Write
 288              	.LVL58:
 123:stepperRight.c ****                         A4_Write(1);
 289              		.loc 1 123 0
 290 016e 0120     		movs	r0, #1
 291 0170 FFF7FEFF 		bl	A4_Write
 292              	.LVL59:
 124:stepperRight.c ****                         B3_Write(0);
 293              		.loc 1 124 0
 294 0174 0020     		movs	r0, #0
 295 0176 FFF7FEFF 		bl	B3_Write
 296              	.LVL60:
 125:stepperRight.c ****                         B4_Write(0);
 297              		.loc 1 125 0
 298 017a 0020     		movs	r0, #0
 299 017c FFF7FEFF 		bl	B4_Write
 300              	.LVL61:
 126:stepperRight.c ****                         CyDelayUs(hastighed);
 301              		.loc 1 126 0
 302 0180 2846     		mov	r0, r5
 303 0182 FFF7FEFF 		bl	CyDelayUs
 304              	.LVL62:
 127:stepperRight.c ****                         
 128:stepperRight.c ****                         //Step 5
 129:stepperRight.c ****                         A3_Write(0);
 305              		.loc 1 129 0
 306 0186 0020     		movs	r0, #0
 307 0188 FFF7FEFF 		bl	A3_Write
 308              	.LVL63:
 130:stepperRight.c ****                         A4_Write(1);
 309              		.loc 1 130 0
 310 018c 0120     		movs	r0, #1
 311 018e FFF7FEFF 		bl	A4_Write
 312              	.LVL64:
 131:stepperRight.c ****                         B3_Write(0);
 313              		.loc 1 131 0
 314 0192 0020     		movs	r0, #0
 315 0194 FFF7FEFF 		bl	B3_Write
 316              	.LVL65:
 132:stepperRight.c ****                         B4_Write(0);
 317              		.loc 1 132 0
 318 0198 0020     		movs	r0, #0
 319 019a FFF7FEFF 		bl	B4_Write
 320              	.LVL66:
 133:stepperRight.c ****                         CyDelayUs(hastighed);
 321              		.loc 1 133 0
 322 019e 2846     		mov	r0, r5
 323 01a0 FFF7FEFF 		bl	CyDelayUs
ARM GAS  C:\Users\andre\AppData\Local\Temp\ccE9mtAK.s 			page 9


 324              	.LVL67:
 134:stepperRight.c ****                         
 135:stepperRight.c ****                         //Step 6
 136:stepperRight.c ****                         A3_Write(0);
 325              		.loc 1 136 0
 326 01a4 0020     		movs	r0, #0
 327 01a6 FFF7FEFF 		bl	A3_Write
 328              	.LVL68:
 137:stepperRight.c ****                         A4_Write(1);
 329              		.loc 1 137 0
 330 01aa 0120     		movs	r0, #1
 331 01ac FFF7FEFF 		bl	A4_Write
 332              	.LVL69:
 138:stepperRight.c ****                         B3_Write(1);
 333              		.loc 1 138 0
 334 01b0 0120     		movs	r0, #1
 335 01b2 FFF7FEFF 		bl	B3_Write
 336              	.LVL70:
 139:stepperRight.c ****                         B4_Write(0);
 337              		.loc 1 139 0
 338 01b6 0020     		movs	r0, #0
 339 01b8 FFF7FEFF 		bl	B4_Write
 340              	.LVL71:
 140:stepperRight.c ****                         CyDelayUs(hastighed);
 341              		.loc 1 140 0
 342 01bc 2846     		mov	r0, r5
 343 01be FFF7FEFF 		bl	CyDelayUs
 344              	.LVL72:
 141:stepperRight.c ****                                     
 142:stepperRight.c ****                         //Step 7
 143:stepperRight.c ****                         A3_Write(0);
 345              		.loc 1 143 0
 346 01c2 0020     		movs	r0, #0
 347 01c4 FFF7FEFF 		bl	A3_Write
 348              	.LVL73:
 144:stepperRight.c ****                         A4_Write(0);
 349              		.loc 1 144 0
 350 01c8 0020     		movs	r0, #0
 351 01ca FFF7FEFF 		bl	A4_Write
 352              	.LVL74:
 145:stepperRight.c ****                         B3_Write(1);
 353              		.loc 1 145 0
 354 01ce 0120     		movs	r0, #1
 355 01d0 FFF7FEFF 		bl	B3_Write
 356              	.LVL75:
 146:stepperRight.c ****                         B4_Write(0);
 357              		.loc 1 146 0
 358 01d4 0020     		movs	r0, #0
 359 01d6 FFF7FEFF 		bl	B4_Write
 360              	.LVL76:
 147:stepperRight.c ****                         CyDelayUs(hastighed);
 361              		.loc 1 147 0
 362 01da 2846     		mov	r0, r5
 363 01dc FFF7FEFF 		bl	CyDelayUs
 364              	.LVL77:
 148:stepperRight.c ****                                     
 149:stepperRight.c ****                         //Step 8
ARM GAS  C:\Users\andre\AppData\Local\Temp\ccE9mtAK.s 			page 10


 150:stepperRight.c ****                         A3_Write(0);
 365              		.loc 1 150 0
 366 01e0 0020     		movs	r0, #0
 367 01e2 FFF7FEFF 		bl	A3_Write
 368              	.LVL78:
 151:stepperRight.c ****                         A4_Write(0);
 369              		.loc 1 151 0
 370 01e6 0020     		movs	r0, #0
 371 01e8 FFF7FEFF 		bl	A4_Write
 372              	.LVL79:
 152:stepperRight.c ****                         B3_Write(1);
 373              		.loc 1 152 0
 374 01ec 0120     		movs	r0, #1
 375 01ee FFF7FEFF 		bl	B3_Write
 376              	.LVL80:
 153:stepperRight.c ****                         B4_Write(1);
 377              		.loc 1 153 0
 378 01f2 0120     		movs	r0, #1
 379 01f4 FFF7FEFF 		bl	B4_Write
 380              	.LVL81:
 154:stepperRight.c ****                         CyDelayUs(hastighed);
 381              		.loc 1 154 0
 382 01f8 2846     		mov	r0, r5
 383 01fa FFF7FEFF 		bl	CyDelayUs
 384              	.LVL82:
 385              	.L6:
 386              	.LBE4:
 155:stepperRight.c ****                                    
 156:stepperRight.c ****                                              
 157:stepperRight.c **** 
 158:stepperRight.c **** 
 159:stepperRight.c ****                     }
 160:stepperRight.c ****                     
 161:stepperRight.c ****             
 162:stepperRight.c ****                     
 163:stepperRight.c ****                    if(status == 1) //Kører baglæns
 387              		.loc 1 163 0
 388 01fe 012C     		cmp	r4, #1
 389 0200 40F0F780 		bne	.L1
 390              	.LBB5:
 164:stepperRight.c ****                     {
 165:stepperRight.c ****                         //Step 1
 166:stepperRight.c ****                         A3_Write(0);
 391              		.loc 1 166 0
 392 0204 0020     		movs	r0, #0
 393 0206 FFF7FEFF 		bl	A3_Write
 394              	.LVL83:
 167:stepperRight.c ****                         A4_Write(0);
 395              		.loc 1 167 0
 396 020a 0020     		movs	r0, #0
 397 020c FFF7FEFF 		bl	A4_Write
 398              	.LVL84:
 168:stepperRight.c ****                         B3_Write(0);
 399              		.loc 1 168 0
 400 0210 0020     		movs	r0, #0
 401 0212 FFF7FEFF 		bl	B3_Write
 402              	.LVL85:
ARM GAS  C:\Users\andre\AppData\Local\Temp\ccE9mtAK.s 			page 11


 169:stepperRight.c ****                         B4_Write(1);
 403              		.loc 1 169 0
 404 0216 0120     		movs	r0, #1
 405 0218 FFF7FEFF 		bl	B4_Write
 406              	.LVL86:
 170:stepperRight.c ****                         CyDelayUs(hastighed);
 407              		.loc 1 170 0
 408 021c 2846     		mov	r0, r5
 409 021e FFF7FEFF 		bl	CyDelayUs
 410              	.LVL87:
 171:stepperRight.c ****                                     
 172:stepperRight.c ****                         //Step 2
 173:stepperRight.c ****                         A3_Write(0);
 411              		.loc 1 173 0
 412 0222 0020     		movs	r0, #0
 413 0224 FFF7FEFF 		bl	A3_Write
 414              	.LVL88:
 174:stepperRight.c ****                         A4_Write(0);
 415              		.loc 1 174 0
 416 0228 0020     		movs	r0, #0
 417 022a FFF7FEFF 		bl	A4_Write
 418              	.LVL89:
 175:stepperRight.c ****                         B3_Write(1);
 419              		.loc 1 175 0
 420 022e 0120     		movs	r0, #1
 421 0230 FFF7FEFF 		bl	B3_Write
 422              	.LVL90:
 176:stepperRight.c ****                         B4_Write(1);
 423              		.loc 1 176 0
 424 0234 0120     		movs	r0, #1
 425 0236 FFF7FEFF 		bl	B4_Write
 426              	.LVL91:
 177:stepperRight.c ****                         CyDelayUs(hastighed);
 427              		.loc 1 177 0
 428 023a 2846     		mov	r0, r5
 429 023c FFF7FEFF 		bl	CyDelayUs
 430              	.LVL92:
 178:stepperRight.c ****                                     
 179:stepperRight.c ****                         //Step 3
 180:stepperRight.c ****                         A3_Write(0);
 431              		.loc 1 180 0
 432 0240 0020     		movs	r0, #0
 433 0242 FFF7FEFF 		bl	A3_Write
 434              	.LVL93:
 181:stepperRight.c ****                         A4_Write(0);
 435              		.loc 1 181 0
 436 0246 0020     		movs	r0, #0
 437 0248 FFF7FEFF 		bl	A4_Write
 438              	.LVL94:
 182:stepperRight.c ****                         B3_Write(1);
 439              		.loc 1 182 0
 440 024c 0120     		movs	r0, #1
 441 024e FFF7FEFF 		bl	B3_Write
 442              	.LVL95:
 183:stepperRight.c ****                         B4_Write(0);
 443              		.loc 1 183 0
 444 0252 0020     		movs	r0, #0
ARM GAS  C:\Users\andre\AppData\Local\Temp\ccE9mtAK.s 			page 12


 445 0254 FFF7FEFF 		bl	B4_Write
 446              	.LVL96:
 184:stepperRight.c ****                         CyDelayUs(hastighed);
 447              		.loc 1 184 0
 448 0258 2846     		mov	r0, r5
 449 025a FFF7FEFF 		bl	CyDelayUs
 450              	.LVL97:
 185:stepperRight.c ****                                    
 186:stepperRight.c ****                         //Step 4
 187:stepperRight.c ****                         A3_Write(0);
 451              		.loc 1 187 0
 452 025e 0020     		movs	r0, #0
 453 0260 FFF7FEFF 		bl	A3_Write
 454              	.LVL98:
 188:stepperRight.c ****                         A4_Write(1);
 455              		.loc 1 188 0
 456 0264 0120     		movs	r0, #1
 457 0266 FFF7FEFF 		bl	A4_Write
 458              	.LVL99:
 189:stepperRight.c ****                         B3_Write(1);
 459              		.loc 1 189 0
 460 026a 0120     		movs	r0, #1
 461 026c FFF7FEFF 		bl	B3_Write
 462              	.LVL100:
 190:stepperRight.c ****                         B4_Write(0);
 463              		.loc 1 190 0
 464 0270 0020     		movs	r0, #0
 465 0272 FFF7FEFF 		bl	B4_Write
 466              	.LVL101:
 191:stepperRight.c ****                         CyDelayUs(hastighed);
 467              		.loc 1 191 0
 468 0276 2846     		mov	r0, r5
 469 0278 FFF7FEFF 		bl	CyDelayUs
 470              	.LVL102:
 192:stepperRight.c ****                         
 193:stepperRight.c ****                         //Step 5
 194:stepperRight.c ****                         A3_Write(0);
 471              		.loc 1 194 0
 472 027c 0020     		movs	r0, #0
 473 027e FFF7FEFF 		bl	A3_Write
 474              	.LVL103:
 195:stepperRight.c ****                         A4_Write(1);
 475              		.loc 1 195 0
 476 0282 0120     		movs	r0, #1
 477 0284 FFF7FEFF 		bl	A4_Write
 478              	.LVL104:
 196:stepperRight.c ****                         B3_Write(0);
 479              		.loc 1 196 0
 480 0288 0020     		movs	r0, #0
 481 028a FFF7FEFF 		bl	B3_Write
 482              	.LVL105:
 197:stepperRight.c ****                         B4_Write(0);
 483              		.loc 1 197 0
 484 028e 0020     		movs	r0, #0
 485 0290 FFF7FEFF 		bl	B4_Write
 486              	.LVL106:
 198:stepperRight.c ****                         CyDelayUs(hastighed);
ARM GAS  C:\Users\andre\AppData\Local\Temp\ccE9mtAK.s 			page 13


 487              		.loc 1 198 0
 488 0294 2846     		mov	r0, r5
 489 0296 FFF7FEFF 		bl	CyDelayUs
 490              	.LVL107:
 199:stepperRight.c ****                                     
 200:stepperRight.c ****                         //Step 6
 201:stepperRight.c ****                         A3_Write(1);
 491              		.loc 1 201 0
 492 029a 0120     		movs	r0, #1
 493 029c FFF7FEFF 		bl	A3_Write
 494              	.LVL108:
 202:stepperRight.c ****                         A4_Write(1);
 495              		.loc 1 202 0
 496 02a0 0120     		movs	r0, #1
 497 02a2 FFF7FEFF 		bl	A4_Write
 498              	.LVL109:
 203:stepperRight.c ****                         B3_Write(0);
 499              		.loc 1 203 0
 500 02a6 0020     		movs	r0, #0
 501 02a8 FFF7FEFF 		bl	B3_Write
 502              	.LVL110:
 204:stepperRight.c ****                         B4_Write(0);
 503              		.loc 1 204 0
 504 02ac 0020     		movs	r0, #0
 505 02ae FFF7FEFF 		bl	B4_Write
 506              	.LVL111:
 205:stepperRight.c ****                         CyDelayUs(hastighed);
 507              		.loc 1 205 0
 508 02b2 2846     		mov	r0, r5
 509 02b4 FFF7FEFF 		bl	CyDelayUs
 510              	.LVL112:
 206:stepperRight.c ****                                     
 207:stepperRight.c ****                         //Step 7
 208:stepperRight.c ****                         A3_Write(1);
 511              		.loc 1 208 0
 512 02b8 0120     		movs	r0, #1
 513 02ba FFF7FEFF 		bl	A3_Write
 514              	.LVL113:
 209:stepperRight.c ****                         A4_Write(0);
 515              		.loc 1 209 0
 516 02be 0020     		movs	r0, #0
 517 02c0 FFF7FEFF 		bl	A4_Write
 518              	.LVL114:
 210:stepperRight.c ****                         B3_Write(0);
 519              		.loc 1 210 0
 520 02c4 0020     		movs	r0, #0
 521 02c6 FFF7FEFF 		bl	B3_Write
 522              	.LVL115:
 211:stepperRight.c ****                         B4_Write(0);
 523              		.loc 1 211 0
 524 02ca 0020     		movs	r0, #0
 525 02cc FFF7FEFF 		bl	B4_Write
 526              	.LVL116:
 212:stepperRight.c ****                         CyDelayUs(hastighed);
 527              		.loc 1 212 0
 528 02d0 2846     		mov	r0, r5
 529 02d2 FFF7FEFF 		bl	CyDelayUs
ARM GAS  C:\Users\andre\AppData\Local\Temp\ccE9mtAK.s 			page 14


 530              	.LVL117:
 213:stepperRight.c ****                                    
 214:stepperRight.c ****                         //Step 8
 215:stepperRight.c ****                         A3_Write(1);
 531              		.loc 1 215 0
 532 02d6 0120     		movs	r0, #1
 533 02d8 FFF7FEFF 		bl	A3_Write
 534              	.LVL118:
 216:stepperRight.c ****                         A4_Write(0);
 535              		.loc 1 216 0
 536 02dc 0020     		movs	r0, #0
 537 02de FFF7FEFF 		bl	A4_Write
 538              	.LVL119:
 217:stepperRight.c ****                         B3_Write(0);
 539              		.loc 1 217 0
 540 02e2 0020     		movs	r0, #0
 541 02e4 FFF7FEFF 		bl	B3_Write
 542              	.LVL120:
 218:stepperRight.c ****                         B4_Write(1);
 543              		.loc 1 218 0
 544 02e8 0120     		movs	r0, #1
 545 02ea FFF7FEFF 		bl	B4_Write
 546              	.LVL121:
 219:stepperRight.c ****                         CyDelayUs(hastighed);
 547              		.loc 1 219 0
 548 02ee 2846     		mov	r0, r5
 549 02f0 FFF7FEFF 		bl	CyDelayUs
 550              	.LVL122:
 551 02f4 38BD     		pop	{r3, r4, r5, pc}
 552              	.LVL123:
 553              	.L5:
 554              	.LBE5:
 220:stepperRight.c **** 
 221:stepperRight.c ****                     }
 222:stepperRight.c ****                     
 223:stepperRight.c ****            
 224:stepperRight.c ****                 
 225:stepperRight.c ****             }
 226:stepperRight.c ****             else if(stepMode == 3) //wave mode
 555              		.loc 1 226 0
 556 02f6 0328     		cmp	r0, #3
 557 02f8 7BD1     		bne	.L1
 227:stepperRight.c ****             {
 228:stepperRight.c ****                  if(status == 2)//Kører forlæns
 558              		.loc 1 228 0
 559 02fa 0229     		cmp	r1, #2
 560 02fc 3BD1     		bne	.L7
 561              	.LBB6:
 229:stepperRight.c ****                     {
 230:stepperRight.c ****                         //Step 1
 231:stepperRight.c ****                         A3_Write(0);
 562              		.loc 1 231 0
 563 02fe 0020     		movs	r0, #0
 564              	.LVL124:
 565 0300 FFF7FEFF 		bl	A3_Write
 566              	.LVL125:
 232:stepperRight.c ****                         A4_Write(0);
ARM GAS  C:\Users\andre\AppData\Local\Temp\ccE9mtAK.s 			page 15


 567              		.loc 1 232 0
 568 0304 0020     		movs	r0, #0
 569 0306 FFF7FEFF 		bl	A4_Write
 570              	.LVL126:
 233:stepperRight.c ****                         B3_Write(0);
 571              		.loc 1 233 0
 572 030a 0020     		movs	r0, #0
 573 030c FFF7FEFF 		bl	B3_Write
 574              	.LVL127:
 234:stepperRight.c ****                         B4_Write(1);
 575              		.loc 1 234 0
 576 0310 0120     		movs	r0, #1
 577 0312 FFF7FEFF 		bl	B4_Write
 578              	.LVL128:
 235:stepperRight.c ****                         CyDelayUs(hastighed);
 579              		.loc 1 235 0
 580 0316 2846     		mov	r0, r5
 581 0318 FFF7FEFF 		bl	CyDelayUs
 582              	.LVL129:
 236:stepperRight.c ****                         
 237:stepperRight.c ****                         //Step 2
 238:stepperRight.c ****                         A3_Write(1);
 583              		.loc 1 238 0
 584 031c 0120     		movs	r0, #1
 585 031e FFF7FEFF 		bl	A3_Write
 586              	.LVL130:
 239:stepperRight.c ****                         A4_Write(0);
 587              		.loc 1 239 0
 588 0322 0020     		movs	r0, #0
 589 0324 FFF7FEFF 		bl	A4_Write
 590              	.LVL131:
 240:stepperRight.c ****                         B3_Write(0);
 591              		.loc 1 240 0
 592 0328 0020     		movs	r0, #0
 593 032a FFF7FEFF 		bl	B3_Write
 594              	.LVL132:
 241:stepperRight.c ****                         B4_Write(0);
 595              		.loc 1 241 0
 596 032e 0020     		movs	r0, #0
 597 0330 FFF7FEFF 		bl	B4_Write
 598              	.LVL133:
 242:stepperRight.c ****                         CyDelayUs(hastighed);
 599              		.loc 1 242 0
 600 0334 2846     		mov	r0, r5
 601 0336 FFF7FEFF 		bl	CyDelayUs
 602              	.LVL134:
 243:stepperRight.c ****                                                            
 244:stepperRight.c ****                         //Step 3
 245:stepperRight.c ****                         A3_Write(0);
 603              		.loc 1 245 0
 604 033a 0020     		movs	r0, #0
 605 033c FFF7FEFF 		bl	A3_Write
 606              	.LVL135:
 246:stepperRight.c ****                         A4_Write(1);
 607              		.loc 1 246 0
 608 0340 0120     		movs	r0, #1
 609 0342 FFF7FEFF 		bl	A4_Write
ARM GAS  C:\Users\andre\AppData\Local\Temp\ccE9mtAK.s 			page 16


 610              	.LVL136:
 247:stepperRight.c ****                         B3_Write(0);
 611              		.loc 1 247 0
 612 0346 0020     		movs	r0, #0
 613 0348 FFF7FEFF 		bl	B3_Write
 614              	.LVL137:
 248:stepperRight.c ****                         B4_Write(0);
 615              		.loc 1 248 0
 616 034c 0020     		movs	r0, #0
 617 034e FFF7FEFF 		bl	B4_Write
 618              	.LVL138:
 249:stepperRight.c ****                         CyDelayUs(hastighed);
 619              		.loc 1 249 0
 620 0352 2846     		mov	r0, r5
 621 0354 FFF7FEFF 		bl	CyDelayUs
 622              	.LVL139:
 250:stepperRight.c ****                                     
 251:stepperRight.c ****                                                          
 252:stepperRight.c ****                         //Step 4
 253:stepperRight.c ****                         A3_Write(0);
 623              		.loc 1 253 0
 624 0358 0020     		movs	r0, #0
 625 035a FFF7FEFF 		bl	A3_Write
 626              	.LVL140:
 254:stepperRight.c ****                         A4_Write(0);
 627              		.loc 1 254 0
 628 035e 0020     		movs	r0, #0
 629 0360 FFF7FEFF 		bl	A4_Write
 630              	.LVL141:
 255:stepperRight.c ****                         B3_Write(1);
 631              		.loc 1 255 0
 632 0364 0120     		movs	r0, #1
 633 0366 FFF7FEFF 		bl	B3_Write
 634              	.LVL142:
 256:stepperRight.c ****                         B4_Write(0);
 635              		.loc 1 256 0
 636 036a 0020     		movs	r0, #0
 637 036c FFF7FEFF 		bl	B4_Write
 638              	.LVL143:
 257:stepperRight.c ****                         CyDelayUs(hastighed);
 639              		.loc 1 257 0
 640 0370 2846     		mov	r0, r5
 641 0372 FFF7FEFF 		bl	CyDelayUs
 642              	.LVL144:
 643              	.L7:
 644              	.LBE6:
 258:stepperRight.c ****                         
 259:stepperRight.c **** 
 260:stepperRight.c ****                     }
 261:stepperRight.c ****                     
 262:stepperRight.c ****             
 263:stepperRight.c ****                     
 264:stepperRight.c ****                    if(status == 1) //Kører baglæns
 645              		.loc 1 264 0
 646 0376 012C     		cmp	r4, #1
 647 0378 3BD1     		bne	.L1
 648              	.LBB7:
ARM GAS  C:\Users\andre\AppData\Local\Temp\ccE9mtAK.s 			page 17


 265:stepperRight.c ****                     {
 266:stepperRight.c ****                         //Step 1
 267:stepperRight.c ****                         A3_Write(0);
 649              		.loc 1 267 0
 650 037a 0020     		movs	r0, #0
 651 037c FFF7FEFF 		bl	A3_Write
 652              	.LVL145:
 268:stepperRight.c ****                         A4_Write(0);
 653              		.loc 1 268 0
 654 0380 0020     		movs	r0, #0
 655 0382 FFF7FEFF 		bl	A4_Write
 656              	.LVL146:
 269:stepperRight.c ****                         B3_Write(0);
 657              		.loc 1 269 0
 658 0386 0020     		movs	r0, #0
 659 0388 FFF7FEFF 		bl	B3_Write
 660              	.LVL147:
 270:stepperRight.c ****                         B4_Write(1);
 661              		.loc 1 270 0
 662 038c 0120     		movs	r0, #1
 663 038e FFF7FEFF 		bl	B4_Write
 664              	.LVL148:
 271:stepperRight.c ****                         CyDelayUs(hastighed);
 665              		.loc 1 271 0
 666 0392 2846     		mov	r0, r5
 667 0394 FFF7FEFF 		bl	CyDelayUs
 668              	.LVL149:
 272:stepperRight.c ****                         
 273:stepperRight.c ****                         //Step 2
 274:stepperRight.c ****                         A3_Write(0);
 669              		.loc 1 274 0
 670 0398 0020     		movs	r0, #0
 671 039a FFF7FEFF 		bl	A3_Write
 672              	.LVL150:
 275:stepperRight.c ****                         A4_Write(0);
 673              		.loc 1 275 0
 674 039e 0020     		movs	r0, #0
 675 03a0 FFF7FEFF 		bl	A4_Write
 676              	.LVL151:
 276:stepperRight.c ****                         B3_Write(1);
 677              		.loc 1 276 0
 678 03a4 0120     		movs	r0, #1
 679 03a6 FFF7FEFF 		bl	B3_Write
 680              	.LVL152:
 277:stepperRight.c ****                         B4_Write(0);
 681              		.loc 1 277 0
 682 03aa 0020     		movs	r0, #0
 683 03ac FFF7FEFF 		bl	B4_Write
 684              	.LVL153:
 278:stepperRight.c ****                         CyDelayUs(hastighed);
 685              		.loc 1 278 0
 686 03b0 2846     		mov	r0, r5
 687 03b2 FFF7FEFF 		bl	CyDelayUs
 688              	.LVL154:
 279:stepperRight.c ****                                                            
 280:stepperRight.c ****                         //Step 3
 281:stepperRight.c ****                         A3_Write(0);
ARM GAS  C:\Users\andre\AppData\Local\Temp\ccE9mtAK.s 			page 18


 689              		.loc 1 281 0
 690 03b6 0020     		movs	r0, #0
 691 03b8 FFF7FEFF 		bl	A3_Write
 692              	.LVL155:
 282:stepperRight.c ****                         A4_Write(1);
 693              		.loc 1 282 0
 694 03bc 0120     		movs	r0, #1
 695 03be FFF7FEFF 		bl	A4_Write
 696              	.LVL156:
 283:stepperRight.c ****                         B3_Write(0);
 697              		.loc 1 283 0
 698 03c2 0020     		movs	r0, #0
 699 03c4 FFF7FEFF 		bl	B3_Write
 700              	.LVL157:
 284:stepperRight.c ****                         B4_Write(0);
 701              		.loc 1 284 0
 702 03c8 0020     		movs	r0, #0
 703 03ca FFF7FEFF 		bl	B4_Write
 704              	.LVL158:
 285:stepperRight.c ****                         CyDelayUs(hastighed);
 705              		.loc 1 285 0
 706 03ce 2846     		mov	r0, r5
 707 03d0 FFF7FEFF 		bl	CyDelayUs
 708              	.LVL159:
 286:stepperRight.c ****                                     
 287:stepperRight.c ****                                                          
 288:stepperRight.c ****                         //Step 4
 289:stepperRight.c ****                         A3_Write(1);
 709              		.loc 1 289 0
 710 03d4 0120     		movs	r0, #1
 711 03d6 FFF7FEFF 		bl	A3_Write
 712              	.LVL160:
 290:stepperRight.c ****                         A4_Write(0);
 713              		.loc 1 290 0
 714 03da 0020     		movs	r0, #0
 715 03dc FFF7FEFF 		bl	A4_Write
 716              	.LVL161:
 291:stepperRight.c ****                         B3_Write(0);
 717              		.loc 1 291 0
 718 03e0 0020     		movs	r0, #0
 719 03e2 FFF7FEFF 		bl	B3_Write
 720              	.LVL162:
 292:stepperRight.c ****                         B4_Write(0);
 721              		.loc 1 292 0
 722 03e6 0020     		movs	r0, #0
 723 03e8 FFF7FEFF 		bl	B4_Write
 724              	.LVL163:
 293:stepperRight.c ****                         CyDelayUs(hastighed);
 725              		.loc 1 293 0
 726 03ec 2846     		mov	r0, r5
 727 03ee FFF7FEFF 		bl	CyDelayUs
 728              	.LVL164:
 729              	.L1:
 730 03f2 38BD     		pop	{r3, r4, r5, pc}
 731              	.LBE7:
 732              		.cfi_endproc
 733              	.LFE0:
ARM GAS  C:\Users\andre\AppData\Local\Temp\ccE9mtAK.s 			page 19


 734              		.size	stepperRight, .-stepperRight
 735              		.section	.text.resetRight,"ax",%progbits
 736              		.align	2
 737              		.global	resetRight
 738              		.thumb
 739              		.thumb_func
 740              		.type	resetRight, %function
 741              	resetRight:
 742              	.LFB1:
 294:stepperRight.c ****                         
 295:stepperRight.c **** 
 296:stepperRight.c ****                     }
 297:stepperRight.c **** 
 298:stepperRight.c ****                     
 299:stepperRight.c ****             }
 300:stepperRight.c **** 
 301:stepperRight.c **** }
 302:stepperRight.c **** 
 303:stepperRight.c **** void resetRight()
 304:stepperRight.c **** {
 743              		.loc 1 304 0
 744              		.cfi_startproc
 745              		@ args = 0, pretend = 0, frame = 0
 746              		@ frame_needed = 0, uses_anonymous_args = 0
 747 0000 08B5     		push	{r3, lr}
 748              		.cfi_def_cfa_offset 8
 749              		.cfi_offset 3, -8
 750              		.cfi_offset 14, -4
 305:stepperRight.c ****                         
 306:stepperRight.c ****                     //Reset mod kortslutning
 307:stepperRight.c ****                     A3_Write(0);
 751              		.loc 1 307 0
 752 0002 0020     		movs	r0, #0
 753 0004 FFF7FEFF 		bl	A3_Write
 754              	.LVL165:
 308:stepperRight.c ****                     A4_Write(0);
 755              		.loc 1 308 0
 756 0008 0020     		movs	r0, #0
 757 000a FFF7FEFF 		bl	A4_Write
 758              	.LVL166:
 309:stepperRight.c ****                     B3_Write(0);
 759              		.loc 1 309 0
 760 000e 0020     		movs	r0, #0
 761 0010 FFF7FEFF 		bl	B3_Write
 762              	.LVL167:
 310:stepperRight.c ****                     B4_Write(0);
 763              		.loc 1 310 0
 764 0014 0020     		movs	r0, #0
 765 0016 FFF7FEFF 		bl	B4_Write
 766              	.LVL168:
 767 001a 08BD     		pop	{r3, pc}
 768              		.cfi_endproc
 769              	.LFE1:
 770              		.size	resetRight, .-resetRight
 771              		.text
 772              	.Letext0: