ARM GAS  C:\Users\andre\AppData\Local\Temp\ccqKuqUo.s 			page 1


   1              		.syntax unified
   2              		.cpu cortex-m3
   3              		.fpu softvfp
   4              		.eabi_attribute 20, 1
   5              		.eabi_attribute 21, 1
   6              		.eabi_attribute 23, 3
   7              		.eabi_attribute 24, 1
   8              		.eabi_attribute 25, 1
   9              		.eabi_attribute 26, 1
  10              		.eabi_attribute 30, 1
  11              		.eabi_attribute 34, 1
  12              		.eabi_attribute 18, 4
  13              		.thumb
  14              		.syntax unified
  15              		.file	"stepperLeft.c"
  16              		.text
  17              	.Ltext0:
  18              		.cfi_sections	.debug_frame
  19              		.section	.text.stepperLeft,"ax",%progbits
  20              		.align	2
  21              		.global	stepperLeft
  22              		.thumb
  23              		.thumb_func
  24              		.type	stepperLeft, %function
  25              	stepperLeft:
  26              	.LFB0:
  27              		.file 1 "stepperLeft.c"
   1:stepperLeft.c **** /* ========================================
   2:stepperLeft.c ****  *
   3:stepperLeft.c ****  * Copyright YOUR COMPANY, THE YEAR
   4:stepperLeft.c ****  * All Rights Reserved
   5:stepperLeft.c ****  * UNPUBLISHED, LICENSED SOFTWARE.
   6:stepperLeft.c ****  *
   7:stepperLeft.c ****  * CONFIDENTIAL AND PROPRIETARY INFORMATION
   8:stepperLeft.c ****  * WHICH IS THE PROPERTY OF your company.
   9:stepperLeft.c ****  *
  10:stepperLeft.c ****  * ========================================
  11:stepperLeft.c **** */
  12:stepperLeft.c **** 
  13:stepperLeft.c **** void stepperLeft(int status, int hastighed)
  14:stepperLeft.c **** {
  28              		.loc 1 14 0
  29              		.cfi_startproc
  30              		@ args = 0, pretend = 0, frame = 0
  31              		@ frame_needed = 0, uses_anonymous_args = 0
  32              	.LVL0:
  33 0000 10B5     		push	{r4, lr}
  34              		.cfi_def_cfa_offset 8
  35              		.cfi_offset 4, -8
  36              		.cfi_offset 14, -4
  37 0002 0C46     		mov	r4, r1
  15:stepperLeft.c **** 
  16:stepperLeft.c ****                 if(status == 1)//Kører forlæns
  38              		.loc 1 16 0
  39 0004 0128     		cmp	r0, #1
  40 0006 78D1     		bne	.L2
  41              	.LBB2:
ARM GAS  C:\Users\andre\AppData\Local\Temp\ccqKuqUo.s 			page 2


  17:stepperLeft.c ****                     {
  18:stepperLeft.c ****                         //Step 1
  19:stepperLeft.c ****                         A1_Write(0);
  42              		.loc 1 19 0
  43 0008 0020     		movs	r0, #0
  44              	.LVL1:
  45 000a FFF7FEFF 		bl	A1_Write
  46              	.LVL2:
  20:stepperLeft.c ****                         A2_Write(0);
  47              		.loc 1 20 0
  48 000e 0020     		movs	r0, #0
  49 0010 FFF7FEFF 		bl	A2_Write
  50              	.LVL3:
  21:stepperLeft.c ****                         B1_Write(0);
  51              		.loc 1 21 0
  52 0014 0020     		movs	r0, #0
  53 0016 FFF7FEFF 		bl	B1_Write
  54              	.LVL4:
  22:stepperLeft.c ****                         B2_Write(1);
  55              		.loc 1 22 0
  56 001a 0120     		movs	r0, #1
  57 001c FFF7FEFF 		bl	B2_Write
  58              	.LVL5:
  23:stepperLeft.c ****                         CyDelayUs(hastighed);
  59              		.loc 1 23 0
  60 0020 2046     		mov	r0, r4
  61 0022 FFF7FEFF 		bl	CyDelayUs
  62              	.LVL6:
  24:stepperLeft.c ****                                     
  25:stepperLeft.c ****                         //Step 2
  26:stepperLeft.c ****                         A1_Write(1);
  63              		.loc 1 26 0
  64 0026 0120     		movs	r0, #1
  65 0028 FFF7FEFF 		bl	A1_Write
  66              	.LVL7:
  27:stepperLeft.c ****                         A2_Write(0);
  67              		.loc 1 27 0
  68 002c 0020     		movs	r0, #0
  69 002e FFF7FEFF 		bl	A2_Write
  70              	.LVL8:
  28:stepperLeft.c ****                         B1_Write(0);
  71              		.loc 1 28 0
  72 0032 0020     		movs	r0, #0
  73 0034 FFF7FEFF 		bl	B1_Write
  74              	.LVL9:
  29:stepperLeft.c ****                         B2_Write(1);
  75              		.loc 1 29 0
  76 0038 0120     		movs	r0, #1
  77 003a FFF7FEFF 		bl	B2_Write
  78              	.LVL10:
  30:stepperLeft.c ****                         CyDelayUs(hastighed);
  79              		.loc 1 30 0
  80 003e 2046     		mov	r0, r4
  81 0040 FFF7FEFF 		bl	CyDelayUs
  82              	.LVL11:
  31:stepperLeft.c ****                                     
  32:stepperLeft.c ****                         //Step 3
ARM GAS  C:\Users\andre\AppData\Local\Temp\ccqKuqUo.s 			page 3


  33:stepperLeft.c ****                         A1_Write(1);
  83              		.loc 1 33 0
  84 0044 0120     		movs	r0, #1
  85 0046 FFF7FEFF 		bl	A1_Write
  86              	.LVL12:
  34:stepperLeft.c ****                         A2_Write(0);
  87              		.loc 1 34 0
  88 004a 0020     		movs	r0, #0
  89 004c FFF7FEFF 		bl	A2_Write
  90              	.LVL13:
  35:stepperLeft.c ****                         B1_Write(0);
  91              		.loc 1 35 0
  92 0050 0020     		movs	r0, #0
  93 0052 FFF7FEFF 		bl	B1_Write
  94              	.LVL14:
  36:stepperLeft.c ****                         B2_Write(0);
  95              		.loc 1 36 0
  96 0056 0020     		movs	r0, #0
  97 0058 FFF7FEFF 		bl	B2_Write
  98              	.LVL15:
  37:stepperLeft.c ****                         CyDelayUs(hastighed);
  99              		.loc 1 37 0
 100 005c 2046     		mov	r0, r4
 101 005e FFF7FEFF 		bl	CyDelayUs
 102              	.LVL16:
  38:stepperLeft.c ****                                    
  39:stepperLeft.c ****                         //Step 4
  40:stepperLeft.c ****                         A1_Write(1);
 103              		.loc 1 40 0
 104 0062 0120     		movs	r0, #1
 105 0064 FFF7FEFF 		bl	A1_Write
 106              	.LVL17:
  41:stepperLeft.c ****                         A2_Write(1);
 107              		.loc 1 41 0
 108 0068 0120     		movs	r0, #1
 109 006a FFF7FEFF 		bl	A2_Write
 110              	.LVL18:
  42:stepperLeft.c ****                         B1_Write(0);
 111              		.loc 1 42 0
 112 006e 0020     		movs	r0, #0
 113 0070 FFF7FEFF 		bl	B1_Write
 114              	.LVL19:
  43:stepperLeft.c ****                         B2_Write(0);
 115              		.loc 1 43 0
 116 0074 0020     		movs	r0, #0
 117 0076 FFF7FEFF 		bl	B2_Write
 118              	.LVL20:
  44:stepperLeft.c ****                         CyDelayUs(hastighed);
 119              		.loc 1 44 0
 120 007a 2046     		mov	r0, r4
 121 007c FFF7FEFF 		bl	CyDelayUs
 122              	.LVL21:
  45:stepperLeft.c ****                         
  46:stepperLeft.c ****                         //Step 5
  47:stepperLeft.c ****                         A1_Write(0);
 123              		.loc 1 47 0
 124 0080 0020     		movs	r0, #0
ARM GAS  C:\Users\andre\AppData\Local\Temp\ccqKuqUo.s 			page 4


 125 0082 FFF7FEFF 		bl	A1_Write
 126              	.LVL22:
  48:stepperLeft.c ****                         A2_Write(1);
 127              		.loc 1 48 0
 128 0086 0120     		movs	r0, #1
 129 0088 FFF7FEFF 		bl	A2_Write
 130              	.LVL23:
  49:stepperLeft.c ****                         B1_Write(0);
 131              		.loc 1 49 0
 132 008c 0020     		movs	r0, #0
 133 008e FFF7FEFF 		bl	B1_Write
 134              	.LVL24:
  50:stepperLeft.c ****                         B2_Write(0);
 135              		.loc 1 50 0
 136 0092 0020     		movs	r0, #0
 137 0094 FFF7FEFF 		bl	B2_Write
 138              	.LVL25:
  51:stepperLeft.c ****                         CyDelayUs(hastighed);
 139              		.loc 1 51 0
 140 0098 2046     		mov	r0, r4
 141 009a FFF7FEFF 		bl	CyDelayUs
 142              	.LVL26:
  52:stepperLeft.c ****                         
  53:stepperLeft.c ****                         //Step 6
  54:stepperLeft.c ****                         A1_Write(0);
 143              		.loc 1 54 0
 144 009e 0020     		movs	r0, #0
 145 00a0 FFF7FEFF 		bl	A1_Write
 146              	.LVL27:
  55:stepperLeft.c ****                         A2_Write(1);
 147              		.loc 1 55 0
 148 00a4 0120     		movs	r0, #1
 149 00a6 FFF7FEFF 		bl	A2_Write
 150              	.LVL28:
  56:stepperLeft.c ****                         B1_Write(1);
 151              		.loc 1 56 0
 152 00aa 0120     		movs	r0, #1
 153 00ac FFF7FEFF 		bl	B1_Write
 154              	.LVL29:
  57:stepperLeft.c ****                         B2_Write(0);
 155              		.loc 1 57 0
 156 00b0 0020     		movs	r0, #0
 157 00b2 FFF7FEFF 		bl	B2_Write
 158              	.LVL30:
  58:stepperLeft.c ****                         CyDelayUs(hastighed);
 159              		.loc 1 58 0
 160 00b6 2046     		mov	r0, r4
 161 00b8 FFF7FEFF 		bl	CyDelayUs
 162              	.LVL31:
  59:stepperLeft.c ****                                     
  60:stepperLeft.c ****                         //Step 7
  61:stepperLeft.c ****                         A1_Write(0);
 163              		.loc 1 61 0
 164 00bc 0020     		movs	r0, #0
 165 00be FFF7FEFF 		bl	A1_Write
 166              	.LVL32:
  62:stepperLeft.c ****                         A2_Write(0);
ARM GAS  C:\Users\andre\AppData\Local\Temp\ccqKuqUo.s 			page 5


 167              		.loc 1 62 0
 168 00c2 0020     		movs	r0, #0
 169 00c4 FFF7FEFF 		bl	A2_Write
 170              	.LVL33:
  63:stepperLeft.c ****                         B1_Write(1);
 171              		.loc 1 63 0
 172 00c8 0120     		movs	r0, #1
 173 00ca FFF7FEFF 		bl	B1_Write
 174              	.LVL34:
  64:stepperLeft.c ****                         B2_Write(0);
 175              		.loc 1 64 0
 176 00ce 0020     		movs	r0, #0
 177 00d0 FFF7FEFF 		bl	B2_Write
 178              	.LVL35:
  65:stepperLeft.c ****                         CyDelayUs(hastighed);
 179              		.loc 1 65 0
 180 00d4 2046     		mov	r0, r4
 181 00d6 FFF7FEFF 		bl	CyDelayUs
 182              	.LVL36:
  66:stepperLeft.c ****                                     
  67:stepperLeft.c ****                         //Step 8
  68:stepperLeft.c ****                         A1_Write(0);
 183              		.loc 1 68 0
 184 00da 0020     		movs	r0, #0
 185 00dc FFF7FEFF 		bl	A1_Write
 186              	.LVL37:
  69:stepperLeft.c ****                         A2_Write(0);
 187              		.loc 1 69 0
 188 00e0 0020     		movs	r0, #0
 189 00e2 FFF7FEFF 		bl	A2_Write
 190              	.LVL38:
  70:stepperLeft.c ****                         B1_Write(1);
 191              		.loc 1 70 0
 192 00e6 0120     		movs	r0, #1
 193 00e8 FFF7FEFF 		bl	B1_Write
 194              	.LVL39:
  71:stepperLeft.c ****                         B2_Write(1);
 195              		.loc 1 71 0
 196 00ec 0120     		movs	r0, #1
 197 00ee FFF7FEFF 		bl	B2_Write
 198              	.LVL40:
  72:stepperLeft.c ****                         CyDelayUs(hastighed);
 199              		.loc 1 72 0
 200 00f2 2046     		mov	r0, r4
 201 00f4 FFF7FEFF 		bl	CyDelayUs
 202              	.LVL41:
 203              	.LBE2:
 204 00f8 10BD     		pop	{r4, pc}
 205              	.LVL42:
 206              	.L2:
  73:stepperLeft.c ****                     }
  74:stepperLeft.c ****                    else if(status == 2) //Kører baglæns
 207              		.loc 1 74 0
 208 00fa 0228     		cmp	r0, #2
 209 00fc 77D1     		bne	.L1
 210              	.LBB3:
  75:stepperLeft.c ****                     {
ARM GAS  C:\Users\andre\AppData\Local\Temp\ccqKuqUo.s 			page 6


  76:stepperLeft.c ****                         //Step 1
  77:stepperLeft.c ****                         A1_Write(0);
 211              		.loc 1 77 0
 212 00fe 0020     		movs	r0, #0
 213              	.LVL43:
 214 0100 FFF7FEFF 		bl	A1_Write
 215              	.LVL44:
  78:stepperLeft.c ****                         A2_Write(0);
 216              		.loc 1 78 0
 217 0104 0020     		movs	r0, #0
 218 0106 FFF7FEFF 		bl	A2_Write
 219              	.LVL45:
  79:stepperLeft.c ****                         B1_Write(0);
 220              		.loc 1 79 0
 221 010a 0020     		movs	r0, #0
 222 010c FFF7FEFF 		bl	B1_Write
 223              	.LVL46:
  80:stepperLeft.c ****                         B2_Write(1);
 224              		.loc 1 80 0
 225 0110 0120     		movs	r0, #1
 226 0112 FFF7FEFF 		bl	B2_Write
 227              	.LVL47:
  81:stepperLeft.c ****                         CyDelayUs(hastighed);
 228              		.loc 1 81 0
 229 0116 2046     		mov	r0, r4
 230 0118 FFF7FEFF 		bl	CyDelayUs
 231              	.LVL48:
  82:stepperLeft.c ****                                     
  83:stepperLeft.c ****                         //Step 2
  84:stepperLeft.c ****                         A1_Write(0);
 232              		.loc 1 84 0
 233 011c 0020     		movs	r0, #0
 234 011e FFF7FEFF 		bl	A1_Write
 235              	.LVL49:
  85:stepperLeft.c ****                         A2_Write(0);
 236              		.loc 1 85 0
 237 0122 0020     		movs	r0, #0
 238 0124 FFF7FEFF 		bl	A2_Write
 239              	.LVL50:
  86:stepperLeft.c ****                         B1_Write(1);
 240              		.loc 1 86 0
 241 0128 0120     		movs	r0, #1
 242 012a FFF7FEFF 		bl	B1_Write
 243              	.LVL51:
  87:stepperLeft.c ****                         B2_Write(1);
 244              		.loc 1 87 0
 245 012e 0120     		movs	r0, #1
 246 0130 FFF7FEFF 		bl	B2_Write
 247              	.LVL52:
  88:stepperLeft.c ****                         CyDelayUs(hastighed);
 248              		.loc 1 88 0
 249 0134 2046     		mov	r0, r4
 250 0136 FFF7FEFF 		bl	CyDelayUs
 251              	.LVL53:
  89:stepperLeft.c ****                                     
  90:stepperLeft.c ****                         //Step 3
  91:stepperLeft.c ****                         A1_Write(0);
ARM GAS  C:\Users\andre\AppData\Local\Temp\ccqKuqUo.s 			page 7


 252              		.loc 1 91 0
 253 013a 0020     		movs	r0, #0
 254 013c FFF7FEFF 		bl	A1_Write
 255              	.LVL54:
  92:stepperLeft.c ****                         A2_Write(0);
 256              		.loc 1 92 0
 257 0140 0020     		movs	r0, #0
 258 0142 FFF7FEFF 		bl	A2_Write
 259              	.LVL55:
  93:stepperLeft.c ****                         B1_Write(1);
 260              		.loc 1 93 0
 261 0146 0120     		movs	r0, #1
 262 0148 FFF7FEFF 		bl	B1_Write
 263              	.LVL56:
  94:stepperLeft.c ****                         B2_Write(0);
 264              		.loc 1 94 0
 265 014c 0020     		movs	r0, #0
 266 014e FFF7FEFF 		bl	B2_Write
 267              	.LVL57:
  95:stepperLeft.c ****                         CyDelayUs(hastighed);
 268              		.loc 1 95 0
 269 0152 2046     		mov	r0, r4
 270 0154 FFF7FEFF 		bl	CyDelayUs
 271              	.LVL58:
  96:stepperLeft.c ****                                    
  97:stepperLeft.c ****                         //Step 4
  98:stepperLeft.c ****                         A1_Write(0);
 272              		.loc 1 98 0
 273 0158 0020     		movs	r0, #0
 274 015a FFF7FEFF 		bl	A1_Write
 275              	.LVL59:
  99:stepperLeft.c ****                         A2_Write(1);
 276              		.loc 1 99 0
 277 015e 0120     		movs	r0, #1
 278 0160 FFF7FEFF 		bl	A2_Write
 279              	.LVL60:
 100:stepperLeft.c ****                         B1_Write(1);
 280              		.loc 1 100 0
 281 0164 0120     		movs	r0, #1
 282 0166 FFF7FEFF 		bl	B1_Write
 283              	.LVL61:
 101:stepperLeft.c ****                         B2_Write(0);
 284              		.loc 1 101 0
 285 016a 0020     		movs	r0, #0
 286 016c FFF7FEFF 		bl	B2_Write
 287              	.LVL62:
 102:stepperLeft.c ****                         CyDelayUs(hastighed);
 288              		.loc 1 102 0
 289 0170 2046     		mov	r0, r4
 290 0172 FFF7FEFF 		bl	CyDelayUs
 291              	.LVL63:
 103:stepperLeft.c ****                         
 104:stepperLeft.c ****                         //Step 5
 105:stepperLeft.c ****                         A1_Write(0);
 292              		.loc 1 105 0
 293 0176 0020     		movs	r0, #0
 294 0178 FFF7FEFF 		bl	A1_Write
ARM GAS  C:\Users\andre\AppData\Local\Temp\ccqKuqUo.s 			page 8


 295              	.LVL64:
 106:stepperLeft.c ****                         A2_Write(1);
 296              		.loc 1 106 0
 297 017c 0120     		movs	r0, #1
 298 017e FFF7FEFF 		bl	A2_Write
 299              	.LVL65:
 107:stepperLeft.c ****                         B1_Write(0);
 300              		.loc 1 107 0
 301 0182 0020     		movs	r0, #0
 302 0184 FFF7FEFF 		bl	B1_Write
 303              	.LVL66:
 108:stepperLeft.c ****                         B2_Write(0);
 304              		.loc 1 108 0
 305 0188 0020     		movs	r0, #0
 306 018a FFF7FEFF 		bl	B2_Write
 307              	.LVL67:
 109:stepperLeft.c ****                         CyDelayUs(hastighed);
 308              		.loc 1 109 0
 309 018e 2046     		mov	r0, r4
 310 0190 FFF7FEFF 		bl	CyDelayUs
 311              	.LVL68:
 110:stepperLeft.c ****                                     
 111:stepperLeft.c ****                         //Step 6
 112:stepperLeft.c ****                         A1_Write(1);
 312              		.loc 1 112 0
 313 0194 0120     		movs	r0, #1
 314 0196 FFF7FEFF 		bl	A1_Write
 315              	.LVL69:
 113:stepperLeft.c ****                         A2_Write(1);
 316              		.loc 1 113 0
 317 019a 0120     		movs	r0, #1
 318 019c FFF7FEFF 		bl	A2_Write
 319              	.LVL70:
 114:stepperLeft.c ****                         B1_Write(0);
 320              		.loc 1 114 0
 321 01a0 0020     		movs	r0, #0
 322 01a2 FFF7FEFF 		bl	B1_Write
 323              	.LVL71:
 115:stepperLeft.c ****                         B2_Write(0);
 324              		.loc 1 115 0
 325 01a6 0020     		movs	r0, #0
 326 01a8 FFF7FEFF 		bl	B2_Write
 327              	.LVL72:
 116:stepperLeft.c ****                         CyDelayUs(hastighed);
 328              		.loc 1 116 0
 329 01ac 2046     		mov	r0, r4
 330 01ae FFF7FEFF 		bl	CyDelayUs
 331              	.LVL73:
 117:stepperLeft.c ****                                     
 118:stepperLeft.c ****                         //Step 7
 119:stepperLeft.c ****                         A1_Write(1);
 332              		.loc 1 119 0
 333 01b2 0120     		movs	r0, #1
 334 01b4 FFF7FEFF 		bl	A1_Write
 335              	.LVL74:
 120:stepperLeft.c ****                         A2_Write(0);
 336              		.loc 1 120 0
ARM GAS  C:\Users\andre\AppData\Local\Temp\ccqKuqUo.s 			page 9


 337 01b8 0020     		movs	r0, #0
 338 01ba FFF7FEFF 		bl	A2_Write
 339              	.LVL75:
 121:stepperLeft.c ****                         B1_Write(0);
 340              		.loc 1 121 0
 341 01be 0020     		movs	r0, #0
 342 01c0 FFF7FEFF 		bl	B1_Write
 343              	.LVL76:
 122:stepperLeft.c ****                         B2_Write(0);
 344              		.loc 1 122 0
 345 01c4 0020     		movs	r0, #0
 346 01c6 FFF7FEFF 		bl	B2_Write
 347              	.LVL77:
 123:stepperLeft.c ****                         CyDelayUs(hastighed);
 348              		.loc 1 123 0
 349 01ca 2046     		mov	r0, r4
 350 01cc FFF7FEFF 		bl	CyDelayUs
 351              	.LVL78:
 124:stepperLeft.c ****                                    
 125:stepperLeft.c ****                         //Step 8
 126:stepperLeft.c ****                         A1_Write(1);
 352              		.loc 1 126 0
 353 01d0 0120     		movs	r0, #1
 354 01d2 FFF7FEFF 		bl	A1_Write
 355              	.LVL79:
 127:stepperLeft.c ****                         A2_Write(0);
 356              		.loc 1 127 0
 357 01d6 0020     		movs	r0, #0
 358 01d8 FFF7FEFF 		bl	A2_Write
 359              	.LVL80:
 128:stepperLeft.c ****                         B1_Write(0);
 360              		.loc 1 128 0
 361 01dc 0020     		movs	r0, #0
 362 01de FFF7FEFF 		bl	B1_Write
 363              	.LVL81:
 129:stepperLeft.c ****                         B2_Write(1);
 364              		.loc 1 129 0
 365 01e2 0120     		movs	r0, #1
 366 01e4 FFF7FEFF 		bl	B2_Write
 367              	.LVL82:
 130:stepperLeft.c ****                         CyDelayUs(hastighed);
 368              		.loc 1 130 0
 369 01e8 2046     		mov	r0, r4
 370 01ea FFF7FEFF 		bl	CyDelayUs
 371              	.LVL83:
 372              	.L1:
 373 01ee 10BD     		pop	{r4, pc}
 374              	.LBE3:
 375              		.cfi_endproc
 376              	.LFE0:
 377              		.size	stepperLeft, .-stepperLeft
 378              		.section	.text.resetLeft,"ax",%progbits
 379              		.align	2
 380              		.global	resetLeft
 381              		.thumb
 382              		.thumb_func
 383              		.type	resetLeft, %function
ARM GAS  C:\Users\andre\AppData\Local\Temp\ccqKuqUo.s 			page 10


 384              	resetLeft:
 385              	.LFB1:
 131:stepperLeft.c ****                     }
 132:stepperLeft.c **** }
 133:stepperLeft.c **** 
 134:stepperLeft.c **** 
 135:stepperLeft.c **** void resetLeft()
 136:stepperLeft.c **** {
 386              		.loc 1 136 0
 387              		.cfi_startproc
 388              		@ args = 0, pretend = 0, frame = 0
 389              		@ frame_needed = 0, uses_anonymous_args = 0
 390 0000 08B5     		push	{r3, lr}
 391              		.cfi_def_cfa_offset 8
 392              		.cfi_offset 3, -8
 393              		.cfi_offset 14, -4
 137:stepperLeft.c ****     //Reset mod kortslutning
 138:stepperLeft.c ****                     A1_Write(0);
 394              		.loc 1 138 0
 395 0002 0020     		movs	r0, #0
 396 0004 FFF7FEFF 		bl	A1_Write
 397              	.LVL84:
 139:stepperLeft.c ****                     A2_Write(0);
 398              		.loc 1 139 0
 399 0008 0020     		movs	r0, #0
 400 000a FFF7FEFF 		bl	A2_Write
 401              	.LVL85:
 140:stepperLeft.c ****                     B1_Write(0);
 402              		.loc 1 140 0
 403 000e 0020     		movs	r0, #0
 404 0010 FFF7FEFF 		bl	B1_Write
 405              	.LVL86:
 141:stepperLeft.c ****                     B2_Write(0);
 406              		.loc 1 141 0
 407 0014 0020     		movs	r0, #0
 408 0016 FFF7FEFF 		bl	B2_Write
 409              	.LVL87:
 410 001a 08BD     		pop	{r3, pc}
 411              		.cfi_endproc
 412              	.LFE1:
 413              		.size	resetLeft, .-resetLeft
 414              		.text
 415              	.Letext0: