ARM GAS  C:\Users\andre\AppData\Local\Temp\cc8heMPl.s 			page 1


   1              		.syntax unified
   2              		.cpu cortex-m3
   3              		.fpu softvfp
   4              		.eabi_attribute 20, 1
   5              		.eabi_attribute 21, 1
   6              		.eabi_attribute 23, 3
   7              		.eabi_attribute 24, 1
   8              		.eabi_attribute 25, 1
   9              		.eabi_attribute 26, 1
  10              		.eabi_attribute 30, 1
  11              		.eabi_attribute 34, 1
  12              		.eabi_attribute 18, 4
  13              		.thumb
  14              		.syntax unified
  15              		.file	"drive.c"
  16              		.text
  17              	.Ltext0:
  18              		.cfi_sections	.debug_frame
  19              		.section	.text.runForward,"ax",%progbits
  20              		.align	2
  21              		.global	runForward
  22              		.thumb
  23              		.thumb_func
  24              		.type	runForward, %function
  25              	runForward:
  26              	.LFB0:
  27              		.file 1 "drive.c"
   1:drive.c       **** /* ========================================
   2:drive.c       ****  *
   3:drive.c       ****  * Copyright YOUR COMPANY, THE YEAR
   4:drive.c       ****  * All Rights Reserved
   5:drive.c       ****  * UNPUBLISHED, LICENSED SOFTWARE.
   6:drive.c       ****  *
   7:drive.c       ****  * CONFIDENTIAL AND PROPRIETARY INFORMATION
   8:drive.c       ****  * WHICH IS THE PROPERTY OF your company.
   9:drive.c       ****  *
  10:drive.c       ****  * ========================================
  11:drive.c       **** */
  12:drive.c       **** #define hastighed 1500
  13:drive.c       **** 
  14:drive.c       **** void runForward()
  15:drive.c       **** {
  28              		.loc 1 15 0
  29              		.cfi_startproc
  30              		@ args = 0, pretend = 0, frame = 0
  31              		@ frame_needed = 0, uses_anonymous_args = 0
  32 0000 10B5     		push	{r4, lr}
  33              		.cfi_def_cfa_offset 8
  34              		.cfi_offset 4, -8
  35              		.cfi_offset 14, -4
  36              	.LVL0:
  16:drive.c       ****   int x;
  17:drive.c       ****     
  18:drive.c       ****     for(x = 0; x < 680; x = x + 1)
  37              		.loc 1 18 0
  38 0002 0024     		movs	r4, #0
  39 0004 E0E0     		b	.L2
ARM GAS  C:\Users\andre\AppData\Local\Temp\cc8heMPl.s 			page 2


  40              	.LVL1:
  41              	.L3:
  42              	.LBB2:
  19:drive.c       ****     {
  20:drive.c       ****                
  21:drive.c       ****         //Step 1
  22:drive.c       ****                         A1_Write(0);
  43              		.loc 1 22 0 discriminator 3
  44 0006 0020     		movs	r0, #0
  45 0008 FFF7FEFF 		bl	A1_Write
  46              	.LVL2:
  23:drive.c       ****                         A2_Write(0);
  47              		.loc 1 23 0 discriminator 3
  48 000c 0020     		movs	r0, #0
  49 000e FFF7FEFF 		bl	A2_Write
  50              	.LVL3:
  24:drive.c       ****                         B1_Write(0);
  51              		.loc 1 24 0 discriminator 3
  52 0012 0020     		movs	r0, #0
  53 0014 FFF7FEFF 		bl	B1_Write
  54              	.LVL4:
  25:drive.c       ****                         B2_Write(1);
  55              		.loc 1 25 0 discriminator 3
  56 0018 0120     		movs	r0, #1
  57 001a FFF7FEFF 		bl	B2_Write
  58              	.LVL5:
  26:drive.c       ****                         A3_Write(0);
  59              		.loc 1 26 0 discriminator 3
  60 001e 0020     		movs	r0, #0
  61 0020 FFF7FEFF 		bl	A3_Write
  62              	.LVL6:
  27:drive.c       ****         A4_Write(0);
  63              		.loc 1 27 0 discriminator 3
  64 0024 0020     		movs	r0, #0
  65 0026 FFF7FEFF 		bl	A4_Write
  66              	.LVL7:
  28:drive.c       ****         B3_Write(0);
  67              		.loc 1 28 0 discriminator 3
  68 002a 0020     		movs	r0, #0
  69 002c FFF7FEFF 		bl	B3_Write
  70              	.LVL8:
  29:drive.c       ****         B4_Write(1);
  71              		.loc 1 29 0 discriminator 3
  72 0030 0120     		movs	r0, #1
  73 0032 FFF7FEFF 		bl	B4_Write
  74              	.LVL9:
  30:drive.c       ****         CyDelayUs(hastighed);
  75              		.loc 1 30 0 discriminator 3
  76 0036 40F2DC50 		movw	r0, #1500
  77 003a FFF7FEFF 		bl	CyDelayUs
  78              	.LVL10:
  31:drive.c       ****                                     
  32:drive.c       ****                         //Step 2
  33:drive.c       ****                         A1_Write(1);
  79              		.loc 1 33 0 discriminator 3
  80 003e 0120     		movs	r0, #1
  81 0040 FFF7FEFF 		bl	A1_Write
ARM GAS  C:\Users\andre\AppData\Local\Temp\cc8heMPl.s 			page 3


  82              	.LVL11:
  34:drive.c       ****                         A2_Write(0);
  83              		.loc 1 34 0 discriminator 3
  84 0044 0020     		movs	r0, #0
  85 0046 FFF7FEFF 		bl	A2_Write
  86              	.LVL12:
  35:drive.c       ****                         B1_Write(0);
  87              		.loc 1 35 0 discriminator 3
  88 004a 0020     		movs	r0, #0
  89 004c FFF7FEFF 		bl	B1_Write
  90              	.LVL13:
  36:drive.c       ****                         B2_Write(1);
  91              		.loc 1 36 0 discriminator 3
  92 0050 0120     		movs	r0, #1
  93 0052 FFF7FEFF 		bl	B2_Write
  94              	.LVL14:
  37:drive.c       ****                         A3_Write(1);
  95              		.loc 1 37 0 discriminator 3
  96 0056 0120     		movs	r0, #1
  97 0058 FFF7FEFF 		bl	A3_Write
  98              	.LVL15:
  38:drive.c       ****         A4_Write(0);
  99              		.loc 1 38 0 discriminator 3
 100 005c 0020     		movs	r0, #0
 101 005e FFF7FEFF 		bl	A4_Write
 102              	.LVL16:
  39:drive.c       ****         B3_Write(0);
 103              		.loc 1 39 0 discriminator 3
 104 0062 0020     		movs	r0, #0
 105 0064 FFF7FEFF 		bl	B3_Write
 106              	.LVL17:
  40:drive.c       ****         B4_Write(1);
 107              		.loc 1 40 0 discriminator 3
 108 0068 0120     		movs	r0, #1
 109 006a FFF7FEFF 		bl	B4_Write
 110              	.LVL18:
  41:drive.c       ****         CyDelayUs(hastighed);
 111              		.loc 1 41 0 discriminator 3
 112 006e 40F2DC50 		movw	r0, #1500
 113 0072 FFF7FEFF 		bl	CyDelayUs
 114              	.LVL19:
  42:drive.c       ****                                     
  43:drive.c       ****                         //Step 3
  44:drive.c       ****                         A1_Write(1);
 115              		.loc 1 44 0 discriminator 3
 116 0076 0120     		movs	r0, #1
 117 0078 FFF7FEFF 		bl	A1_Write
 118              	.LVL20:
  45:drive.c       ****                         A2_Write(0);
 119              		.loc 1 45 0 discriminator 3
 120 007c 0020     		movs	r0, #0
 121 007e FFF7FEFF 		bl	A2_Write
 122              	.LVL21:
  46:drive.c       ****                         B1_Write(0);
 123              		.loc 1 46 0 discriminator 3
 124 0082 0020     		movs	r0, #0
 125 0084 FFF7FEFF 		bl	B1_Write
ARM GAS  C:\Users\andre\AppData\Local\Temp\cc8heMPl.s 			page 4


 126              	.LVL22:
  47:drive.c       ****                         B2_Write(0);
 127              		.loc 1 47 0 discriminator 3
 128 0088 0020     		movs	r0, #0
 129 008a FFF7FEFF 		bl	B2_Write
 130              	.LVL23:
  48:drive.c       ****                         A3_Write(1);
 131              		.loc 1 48 0 discriminator 3
 132 008e 0120     		movs	r0, #1
 133 0090 FFF7FEFF 		bl	A3_Write
 134              	.LVL24:
  49:drive.c       ****         A4_Write(0);
 135              		.loc 1 49 0 discriminator 3
 136 0094 0020     		movs	r0, #0
 137 0096 FFF7FEFF 		bl	A4_Write
 138              	.LVL25:
  50:drive.c       ****         B3_Write(0);
 139              		.loc 1 50 0 discriminator 3
 140 009a 0020     		movs	r0, #0
 141 009c FFF7FEFF 		bl	B3_Write
 142              	.LVL26:
  51:drive.c       ****         B4_Write(0);
 143              		.loc 1 51 0 discriminator 3
 144 00a0 0020     		movs	r0, #0
 145 00a2 FFF7FEFF 		bl	B4_Write
 146              	.LVL27:
  52:drive.c       ****         CyDelayUs(hastighed);
 147              		.loc 1 52 0 discriminator 3
 148 00a6 40F2DC50 		movw	r0, #1500
 149 00aa FFF7FEFF 		bl	CyDelayUs
 150              	.LVL28:
  53:drive.c       ****                                    
  54:drive.c       ****                         //Step 4
  55:drive.c       ****                         A1_Write(1);
 151              		.loc 1 55 0 discriminator 3
 152 00ae 0120     		movs	r0, #1
 153 00b0 FFF7FEFF 		bl	A1_Write
 154              	.LVL29:
  56:drive.c       ****                         A2_Write(1);
 155              		.loc 1 56 0 discriminator 3
 156 00b4 0120     		movs	r0, #1
 157 00b6 FFF7FEFF 		bl	A2_Write
 158              	.LVL30:
  57:drive.c       ****                         B1_Write(0);
 159              		.loc 1 57 0 discriminator 3
 160 00ba 0020     		movs	r0, #0
 161 00bc FFF7FEFF 		bl	B1_Write
 162              	.LVL31:
  58:drive.c       ****                         B2_Write(0);
 163              		.loc 1 58 0 discriminator 3
 164 00c0 0020     		movs	r0, #0
 165 00c2 FFF7FEFF 		bl	B2_Write
 166              	.LVL32:
  59:drive.c       ****                          A3_Write(1);
 167              		.loc 1 59 0 discriminator 3
 168 00c6 0120     		movs	r0, #1
 169 00c8 FFF7FEFF 		bl	A3_Write
ARM GAS  C:\Users\andre\AppData\Local\Temp\cc8heMPl.s 			page 5


 170              	.LVL33:
  60:drive.c       ****         A4_Write(1);
 171              		.loc 1 60 0 discriminator 3
 172 00cc 0120     		movs	r0, #1
 173 00ce FFF7FEFF 		bl	A4_Write
 174              	.LVL34:
  61:drive.c       ****         B3_Write(0);
 175              		.loc 1 61 0 discriminator 3
 176 00d2 0020     		movs	r0, #0
 177 00d4 FFF7FEFF 		bl	B3_Write
 178              	.LVL35:
  62:drive.c       ****         B4_Write(0);
 179              		.loc 1 62 0 discriminator 3
 180 00d8 0020     		movs	r0, #0
 181 00da FFF7FEFF 		bl	B4_Write
 182              	.LVL36:
  63:drive.c       ****         CyDelayUs(hastighed);
 183              		.loc 1 63 0 discriminator 3
 184 00de 40F2DC50 		movw	r0, #1500
 185 00e2 FFF7FEFF 		bl	CyDelayUs
 186              	.LVL37:
  64:drive.c       ****                         
  65:drive.c       ****                         //Step 5
  66:drive.c       ****                         A1_Write(0);
 187              		.loc 1 66 0 discriminator 3
 188 00e6 0020     		movs	r0, #0
 189 00e8 FFF7FEFF 		bl	A1_Write
 190              	.LVL38:
  67:drive.c       ****                         A2_Write(1);
 191              		.loc 1 67 0 discriminator 3
 192 00ec 0120     		movs	r0, #1
 193 00ee FFF7FEFF 		bl	A2_Write
 194              	.LVL39:
  68:drive.c       ****                         B1_Write(0);
 195              		.loc 1 68 0 discriminator 3
 196 00f2 0020     		movs	r0, #0
 197 00f4 FFF7FEFF 		bl	B1_Write
 198              	.LVL40:
  69:drive.c       ****                         B2_Write(0);
 199              		.loc 1 69 0 discriminator 3
 200 00f8 0020     		movs	r0, #0
 201 00fa FFF7FEFF 		bl	B2_Write
 202              	.LVL41:
  70:drive.c       ****                         A3_Write(0);
 203              		.loc 1 70 0 discriminator 3
 204 00fe 0020     		movs	r0, #0
 205 0100 FFF7FEFF 		bl	A3_Write
 206              	.LVL42:
  71:drive.c       ****         A4_Write(1);
 207              		.loc 1 71 0 discriminator 3
 208 0104 0120     		movs	r0, #1
 209 0106 FFF7FEFF 		bl	A4_Write
 210              	.LVL43:
  72:drive.c       ****         B3_Write(0);
 211              		.loc 1 72 0 discriminator 3
 212 010a 0020     		movs	r0, #0
 213 010c FFF7FEFF 		bl	B3_Write
ARM GAS  C:\Users\andre\AppData\Local\Temp\cc8heMPl.s 			page 6


 214              	.LVL44:
  73:drive.c       ****         B4_Write(0);
 215              		.loc 1 73 0 discriminator 3
 216 0110 0020     		movs	r0, #0
 217 0112 FFF7FEFF 		bl	B4_Write
 218              	.LVL45:
  74:drive.c       ****         CyDelayUs(hastighed);
 219              		.loc 1 74 0 discriminator 3
 220 0116 40F2DC50 		movw	r0, #1500
 221 011a FFF7FEFF 		bl	CyDelayUs
 222              	.LVL46:
  75:drive.c       ****                         
  76:drive.c       ****                         //Step 6
  77:drive.c       ****                         A1_Write(0);
 223              		.loc 1 77 0 discriminator 3
 224 011e 0020     		movs	r0, #0
 225 0120 FFF7FEFF 		bl	A1_Write
 226              	.LVL47:
  78:drive.c       ****                         A2_Write(1);
 227              		.loc 1 78 0 discriminator 3
 228 0124 0120     		movs	r0, #1
 229 0126 FFF7FEFF 		bl	A2_Write
 230              	.LVL48:
  79:drive.c       ****                         B1_Write(1);
 231              		.loc 1 79 0 discriminator 3
 232 012a 0120     		movs	r0, #1
 233 012c FFF7FEFF 		bl	B1_Write
 234              	.LVL49:
  80:drive.c       ****                         B2_Write(0);
 235              		.loc 1 80 0 discriminator 3
 236 0130 0020     		movs	r0, #0
 237 0132 FFF7FEFF 		bl	B2_Write
 238              	.LVL50:
  81:drive.c       ****                         A3_Write(0);
 239              		.loc 1 81 0 discriminator 3
 240 0136 0020     		movs	r0, #0
 241 0138 FFF7FEFF 		bl	A3_Write
 242              	.LVL51:
  82:drive.c       ****         A4_Write(1);
 243              		.loc 1 82 0 discriminator 3
 244 013c 0120     		movs	r0, #1
 245 013e FFF7FEFF 		bl	A4_Write
 246              	.LVL52:
  83:drive.c       ****         B3_Write(1);
 247              		.loc 1 83 0 discriminator 3
 248 0142 0120     		movs	r0, #1
 249 0144 FFF7FEFF 		bl	B3_Write
 250              	.LVL53:
  84:drive.c       ****         B4_Write(0);
 251              		.loc 1 84 0 discriminator 3
 252 0148 0020     		movs	r0, #0
 253 014a FFF7FEFF 		bl	B4_Write
 254              	.LVL54:
  85:drive.c       ****         CyDelayUs(hastighed);
 255              		.loc 1 85 0 discriminator 3
 256 014e 40F2DC50 		movw	r0, #1500
 257 0152 FFF7FEFF 		bl	CyDelayUs
ARM GAS  C:\Users\andre\AppData\Local\Temp\cc8heMPl.s 			page 7


 258              	.LVL55:
  86:drive.c       ****                                     
  87:drive.c       ****                         //Step 7
  88:drive.c       ****                         A1_Write(0);
 259              		.loc 1 88 0 discriminator 3
 260 0156 0020     		movs	r0, #0
 261 0158 FFF7FEFF 		bl	A1_Write
 262              	.LVL56:
  89:drive.c       ****                         A2_Write(0);
 263              		.loc 1 89 0 discriminator 3
 264 015c 0020     		movs	r0, #0
 265 015e FFF7FEFF 		bl	A2_Write
 266              	.LVL57:
  90:drive.c       ****                         B1_Write(1);
 267              		.loc 1 90 0 discriminator 3
 268 0162 0120     		movs	r0, #1
 269 0164 FFF7FEFF 		bl	B1_Write
 270              	.LVL58:
  91:drive.c       ****                         B2_Write(0);
 271              		.loc 1 91 0 discriminator 3
 272 0168 0020     		movs	r0, #0
 273 016a FFF7FEFF 		bl	B2_Write
 274              	.LVL59:
  92:drive.c       ****                         A3_Write(0);
 275              		.loc 1 92 0 discriminator 3
 276 016e 0020     		movs	r0, #0
 277 0170 FFF7FEFF 		bl	A3_Write
 278              	.LVL60:
  93:drive.c       ****         A4_Write(0);
 279              		.loc 1 93 0 discriminator 3
 280 0174 0020     		movs	r0, #0
 281 0176 FFF7FEFF 		bl	A4_Write
 282              	.LVL61:
  94:drive.c       ****         B3_Write(1);
 283              		.loc 1 94 0 discriminator 3
 284 017a 0120     		movs	r0, #1
 285 017c FFF7FEFF 		bl	B3_Write
 286              	.LVL62:
  95:drive.c       ****         B4_Write(0);
 287              		.loc 1 95 0 discriminator 3
 288 0180 0020     		movs	r0, #0
 289 0182 FFF7FEFF 		bl	B4_Write
 290              	.LVL63:
  96:drive.c       ****         CyDelayUs(hastighed);
 291              		.loc 1 96 0 discriminator 3
 292 0186 40F2DC50 		movw	r0, #1500
 293 018a FFF7FEFF 		bl	CyDelayUs
 294              	.LVL64:
  97:drive.c       ****                                     
  98:drive.c       ****                         //Step 8
  99:drive.c       ****                         A1_Write(0);
 295              		.loc 1 99 0 discriminator 3
 296 018e 0020     		movs	r0, #0
 297 0190 FFF7FEFF 		bl	A1_Write
 298              	.LVL65:
 100:drive.c       ****                         A2_Write(0);
 299              		.loc 1 100 0 discriminator 3
ARM GAS  C:\Users\andre\AppData\Local\Temp\cc8heMPl.s 			page 8


 300 0194 0020     		movs	r0, #0
 301 0196 FFF7FEFF 		bl	A2_Write
 302              	.LVL66:
 101:drive.c       ****                         B1_Write(1);
 303              		.loc 1 101 0 discriminator 3
 304 019a 0120     		movs	r0, #1
 305 019c FFF7FEFF 		bl	B1_Write
 306              	.LVL67:
 102:drive.c       ****                         B2_Write(1);
 307              		.loc 1 102 0 discriminator 3
 308 01a0 0120     		movs	r0, #1
 309 01a2 FFF7FEFF 		bl	B2_Write
 310              	.LVL68:
 103:drive.c       ****                         A3_Write(0);
 311              		.loc 1 103 0 discriminator 3
 312 01a6 0020     		movs	r0, #0
 313 01a8 FFF7FEFF 		bl	A3_Write
 314              	.LVL69:
 104:drive.c       ****         A4_Write(0);
 315              		.loc 1 104 0 discriminator 3
 316 01ac 0020     		movs	r0, #0
 317 01ae FFF7FEFF 		bl	A4_Write
 318              	.LVL70:
 105:drive.c       ****         B3_Write(1);
 319              		.loc 1 105 0 discriminator 3
 320 01b2 0120     		movs	r0, #1
 321 01b4 FFF7FEFF 		bl	B3_Write
 322              	.LVL71:
 106:drive.c       ****         B4_Write(1);
 323              		.loc 1 106 0 discriminator 3
 324 01b8 0120     		movs	r0, #1
 325 01ba FFF7FEFF 		bl	B4_Write
 326              	.LVL72:
 107:drive.c       ****         CyDelayUs(hastighed);
 327              		.loc 1 107 0 discriminator 3
 328 01be 40F2DC50 		movw	r0, #1500
 329 01c2 FFF7FEFF 		bl	CyDelayUs
 330              	.LVL73:
 331              	.LBE2:
  18:drive.c       ****     {
 332              		.loc 1 18 0 discriminator 3
 333 01c6 0134     		adds	r4, r4, #1
 334              	.LVL74:
 335              	.L2:
  18:drive.c       ****     {
 336              		.loc 1 18 0 is_stmt 0 discriminator 1
 337 01c8 B4F52A7F 		cmp	r4, #680
 338 01cc FFF61BAF 		blt	.L3
 108:drive.c       ****     }
 109:drive.c       ****     //Reset mod kortslutning
 110:drive.c       ****                     A1_Write(0);
 339              		.loc 1 110 0 is_stmt 1
 340 01d0 0020     		movs	r0, #0
 341 01d2 FFF7FEFF 		bl	A1_Write
 342              	.LVL75:
 111:drive.c       ****                     A2_Write(0);
 343              		.loc 1 111 0
ARM GAS  C:\Users\andre\AppData\Local\Temp\cc8heMPl.s 			page 9


 344 01d6 0020     		movs	r0, #0
 345 01d8 FFF7FEFF 		bl	A2_Write
 346              	.LVL76:
 112:drive.c       ****                     B1_Write(0);
 347              		.loc 1 112 0
 348 01dc 0020     		movs	r0, #0
 349 01de FFF7FEFF 		bl	B1_Write
 350              	.LVL77:
 113:drive.c       ****                     B2_Write(0);
 351              		.loc 1 113 0
 352 01e2 0020     		movs	r0, #0
 353 01e4 FFF7FEFF 		bl	B2_Write
 354              	.LVL78:
 114:drive.c       ****                     //Reset mod kortslutning
 115:drive.c       ****     A3_Write(0);
 355              		.loc 1 115 0
 356 01e8 0020     		movs	r0, #0
 357 01ea FFF7FEFF 		bl	A3_Write
 358              	.LVL79:
 116:drive.c       ****     A4_Write(0);
 359              		.loc 1 116 0
 360 01ee 0020     		movs	r0, #0
 361 01f0 FFF7FEFF 		bl	A4_Write
 362              	.LVL80:
 117:drive.c       ****     B3_Write(0);
 363              		.loc 1 117 0
 364 01f4 0020     		movs	r0, #0
 365 01f6 FFF7FEFF 		bl	B3_Write
 366              	.LVL81:
 118:drive.c       ****     B4_Write(0);
 367              		.loc 1 118 0
 368 01fa 0020     		movs	r0, #0
 369 01fc FFF7FEFF 		bl	B4_Write
 370              	.LVL82:
 371 0200 10BD     		pop	{r4, pc}
 372              		.cfi_endproc
 373              	.LFE0:
 374              		.size	runForward, .-runForward
 375 0202 00BF     		.section	.text.runBackward,"ax",%progbits
 376              		.align	2
 377              		.global	runBackward
 378              		.thumb
 379              		.thumb_func
 380              		.type	runBackward, %function
 381              	runBackward:
 382              	.LFB1:
 119:drive.c       ****  }
 120:drive.c       **** /* [] END OF FILE */
 121:drive.c       **** 
 122:drive.c       **** 
 123:drive.c       **** void runBackward()
 124:drive.c       **** {
 383              		.loc 1 124 0
 384              		.cfi_startproc
 385              		@ args = 0, pretend = 0, frame = 0
 386              		@ frame_needed = 0, uses_anonymous_args = 0
 387 0000 10B5     		push	{r4, lr}
ARM GAS  C:\Users\andre\AppData\Local\Temp\cc8heMPl.s 			page 10


 388              		.cfi_def_cfa_offset 8
 389              		.cfi_offset 4, -8
 390              		.cfi_offset 14, -4
 391              	.LVL83:
 125:drive.c       ****   int x;
 126:drive.c       ****     
 127:drive.c       ****     for(x = 0; x < 680; x = x + 1)
 392              		.loc 1 127 0
 393 0002 0024     		movs	r4, #0
 394 0004 E0E0     		b	.L6
 395              	.LVL84:
 396              	.L7:
 397              	.LBB3:
 128:drive.c       ****     {
 129:drive.c       ****          //Step 1
 130:drive.c       ****                         A1_Write(0);
 398              		.loc 1 130 0 discriminator 3
 399 0006 0020     		movs	r0, #0
 400 0008 FFF7FEFF 		bl	A1_Write
 401              	.LVL85:
 131:drive.c       ****                         A2_Write(0);
 402              		.loc 1 131 0 discriminator 3
 403 000c 0020     		movs	r0, #0
 404 000e FFF7FEFF 		bl	A2_Write
 405              	.LVL86:
 132:drive.c       ****                         B1_Write(0);
 406              		.loc 1 132 0 discriminator 3
 407 0012 0020     		movs	r0, #0
 408 0014 FFF7FEFF 		bl	B1_Write
 409              	.LVL87:
 133:drive.c       ****                         B2_Write(1);
 410              		.loc 1 133 0 discriminator 3
 411 0018 0120     		movs	r0, #1
 412 001a FFF7FEFF 		bl	B2_Write
 413              	.LVL88:
 134:drive.c       ****                          A3_Write(0);
 414              		.loc 1 134 0 discriminator 3
 415 001e 0020     		movs	r0, #0
 416 0020 FFF7FEFF 		bl	A3_Write
 417              	.LVL89:
 135:drive.c       ****         A4_Write(0);
 418              		.loc 1 135 0 discriminator 3
 419 0024 0020     		movs	r0, #0
 420 0026 FFF7FEFF 		bl	A4_Write
 421              	.LVL90:
 136:drive.c       ****         B3_Write(0);
 422              		.loc 1 136 0 discriminator 3
 423 002a 0020     		movs	r0, #0
 424 002c FFF7FEFF 		bl	B3_Write
 425              	.LVL91:
 137:drive.c       ****         B4_Write(1);
 426              		.loc 1 137 0 discriminator 3
 427 0030 0120     		movs	r0, #1
 428 0032 FFF7FEFF 		bl	B4_Write
 429              	.LVL92:
 138:drive.c       ****         CyDelayUs(hastighed);
 430              		.loc 1 138 0 discriminator 3
ARM GAS  C:\Users\andre\AppData\Local\Temp\cc8heMPl.s 			page 11


 431 0036 40F2DC50 		movw	r0, #1500
 432 003a FFF7FEFF 		bl	CyDelayUs
 433              	.LVL93:
 139:drive.c       ****                                     
 140:drive.c       ****                         //Step 2
 141:drive.c       ****                         A1_Write(0);
 434              		.loc 1 141 0 discriminator 3
 435 003e 0020     		movs	r0, #0
 436 0040 FFF7FEFF 		bl	A1_Write
 437              	.LVL94:
 142:drive.c       ****                         A2_Write(0);
 438              		.loc 1 142 0 discriminator 3
 439 0044 0020     		movs	r0, #0
 440 0046 FFF7FEFF 		bl	A2_Write
 441              	.LVL95:
 143:drive.c       ****                         B1_Write(1);
 442              		.loc 1 143 0 discriminator 3
 443 004a 0120     		movs	r0, #1
 444 004c FFF7FEFF 		bl	B1_Write
 445              	.LVL96:
 144:drive.c       ****                         B2_Write(1);
 446              		.loc 1 144 0 discriminator 3
 447 0050 0120     		movs	r0, #1
 448 0052 FFF7FEFF 		bl	B2_Write
 449              	.LVL97:
 145:drive.c       ****                         A3_Write(0);
 450              		.loc 1 145 0 discriminator 3
 451 0056 0020     		movs	r0, #0
 452 0058 FFF7FEFF 		bl	A3_Write
 453              	.LVL98:
 146:drive.c       ****         A4_Write(0);
 454              		.loc 1 146 0 discriminator 3
 455 005c 0020     		movs	r0, #0
 456 005e FFF7FEFF 		bl	A4_Write
 457              	.LVL99:
 147:drive.c       ****         B3_Write(1);
 458              		.loc 1 147 0 discriminator 3
 459 0062 0120     		movs	r0, #1
 460 0064 FFF7FEFF 		bl	B3_Write
 461              	.LVL100:
 148:drive.c       ****         B4_Write(1);
 462              		.loc 1 148 0 discriminator 3
 463 0068 0120     		movs	r0, #1
 464 006a FFF7FEFF 		bl	B4_Write
 465              	.LVL101:
 149:drive.c       ****         CyDelayUs(hastighed);
 466              		.loc 1 149 0 discriminator 3
 467 006e 40F2DC50 		movw	r0, #1500
 468 0072 FFF7FEFF 		bl	CyDelayUs
 469              	.LVL102:
 150:drive.c       ****                                     
 151:drive.c       ****                         //Step 3
 152:drive.c       ****                         A1_Write(0);
 470              		.loc 1 152 0 discriminator 3
 471 0076 0020     		movs	r0, #0
 472 0078 FFF7FEFF 		bl	A1_Write
 473              	.LVL103:
ARM GAS  C:\Users\andre\AppData\Local\Temp\cc8heMPl.s 			page 12


 153:drive.c       ****                         A2_Write(0);
 474              		.loc 1 153 0 discriminator 3
 475 007c 0020     		movs	r0, #0
 476 007e FFF7FEFF 		bl	A2_Write
 477              	.LVL104:
 154:drive.c       ****                         B1_Write(1);
 478              		.loc 1 154 0 discriminator 3
 479 0082 0120     		movs	r0, #1
 480 0084 FFF7FEFF 		bl	B1_Write
 481              	.LVL105:
 155:drive.c       ****                         B2_Write(0);
 482              		.loc 1 155 0 discriminator 3
 483 0088 0020     		movs	r0, #0
 484 008a FFF7FEFF 		bl	B2_Write
 485              	.LVL106:
 156:drive.c       ****                         A3_Write(0);
 486              		.loc 1 156 0 discriminator 3
 487 008e 0020     		movs	r0, #0
 488 0090 FFF7FEFF 		bl	A3_Write
 489              	.LVL107:
 157:drive.c       ****         A4_Write(0);
 490              		.loc 1 157 0 discriminator 3
 491 0094 0020     		movs	r0, #0
 492 0096 FFF7FEFF 		bl	A4_Write
 493              	.LVL108:
 158:drive.c       ****         B3_Write(1);
 494              		.loc 1 158 0 discriminator 3
 495 009a 0120     		movs	r0, #1
 496 009c FFF7FEFF 		bl	B3_Write
 497              	.LVL109:
 159:drive.c       ****         B4_Write(0);
 498              		.loc 1 159 0 discriminator 3
 499 00a0 0020     		movs	r0, #0
 500 00a2 FFF7FEFF 		bl	B4_Write
 501              	.LVL110:
 160:drive.c       ****         CyDelayUs(hastighed);
 502              		.loc 1 160 0 discriminator 3
 503 00a6 40F2DC50 		movw	r0, #1500
 504 00aa FFF7FEFF 		bl	CyDelayUs
 505              	.LVL111:
 161:drive.c       ****                                    
 162:drive.c       ****                         //Step 4
 163:drive.c       ****                         A1_Write(0);
 506              		.loc 1 163 0 discriminator 3
 507 00ae 0020     		movs	r0, #0
 508 00b0 FFF7FEFF 		bl	A1_Write
 509              	.LVL112:
 164:drive.c       ****                         A2_Write(1);
 510              		.loc 1 164 0 discriminator 3
 511 00b4 0120     		movs	r0, #1
 512 00b6 FFF7FEFF 		bl	A2_Write
 513              	.LVL113:
 165:drive.c       ****                         B1_Write(1);
 514              		.loc 1 165 0 discriminator 3
 515 00ba 0120     		movs	r0, #1
 516 00bc FFF7FEFF 		bl	B1_Write
 517              	.LVL114:
ARM GAS  C:\Users\andre\AppData\Local\Temp\cc8heMPl.s 			page 13


 166:drive.c       ****                         B2_Write(0);
 518              		.loc 1 166 0 discriminator 3
 519 00c0 0020     		movs	r0, #0
 520 00c2 FFF7FEFF 		bl	B2_Write
 521              	.LVL115:
 167:drive.c       ****                         A3_Write(0);
 522              		.loc 1 167 0 discriminator 3
 523 00c6 0020     		movs	r0, #0
 524 00c8 FFF7FEFF 		bl	A3_Write
 525              	.LVL116:
 168:drive.c       ****         A4_Write(1);
 526              		.loc 1 168 0 discriminator 3
 527 00cc 0120     		movs	r0, #1
 528 00ce FFF7FEFF 		bl	A4_Write
 529              	.LVL117:
 169:drive.c       ****         B3_Write(1);
 530              		.loc 1 169 0 discriminator 3
 531 00d2 0120     		movs	r0, #1
 532 00d4 FFF7FEFF 		bl	B3_Write
 533              	.LVL118:
 170:drive.c       ****         B4_Write(0);
 534              		.loc 1 170 0 discriminator 3
 535 00d8 0020     		movs	r0, #0
 536 00da FFF7FEFF 		bl	B4_Write
 537              	.LVL119:
 171:drive.c       ****         CyDelayUs(hastighed);
 538              		.loc 1 171 0 discriminator 3
 539 00de 40F2DC50 		movw	r0, #1500
 540 00e2 FFF7FEFF 		bl	CyDelayUs
 541              	.LVL120:
 172:drive.c       ****                         
 173:drive.c       ****                         //Step 5
 174:drive.c       ****                         A1_Write(0);
 542              		.loc 1 174 0 discriminator 3
 543 00e6 0020     		movs	r0, #0
 544 00e8 FFF7FEFF 		bl	A1_Write
 545              	.LVL121:
 175:drive.c       ****                         A2_Write(1);
 546              		.loc 1 175 0 discriminator 3
 547 00ec 0120     		movs	r0, #1
 548 00ee FFF7FEFF 		bl	A2_Write
 549              	.LVL122:
 176:drive.c       ****                         B1_Write(0);
 550              		.loc 1 176 0 discriminator 3
 551 00f2 0020     		movs	r0, #0
 552 00f4 FFF7FEFF 		bl	B1_Write
 553              	.LVL123:
 177:drive.c       ****                         B2_Write(0);
 554              		.loc 1 177 0 discriminator 3
 555 00f8 0020     		movs	r0, #0
 556 00fa FFF7FEFF 		bl	B2_Write
 557              	.LVL124:
 178:drive.c       ****                         A3_Write(0);
 558              		.loc 1 178 0 discriminator 3
 559 00fe 0020     		movs	r0, #0
 560 0100 FFF7FEFF 		bl	A3_Write
 561              	.LVL125:
ARM GAS  C:\Users\andre\AppData\Local\Temp\cc8heMPl.s 			page 14


 179:drive.c       ****         A4_Write(1);
 562              		.loc 1 179 0 discriminator 3
 563 0104 0120     		movs	r0, #1
 564 0106 FFF7FEFF 		bl	A4_Write
 565              	.LVL126:
 180:drive.c       ****         B3_Write(0);
 566              		.loc 1 180 0 discriminator 3
 567 010a 0020     		movs	r0, #0
 568 010c FFF7FEFF 		bl	B3_Write
 569              	.LVL127:
 181:drive.c       ****         B4_Write(0);
 570              		.loc 1 181 0 discriminator 3
 571 0110 0020     		movs	r0, #0
 572 0112 FFF7FEFF 		bl	B4_Write
 573              	.LVL128:
 182:drive.c       ****         CyDelayUs(hastighed);
 574              		.loc 1 182 0 discriminator 3
 575 0116 40F2DC50 		movw	r0, #1500
 576 011a FFF7FEFF 		bl	CyDelayUs
 577              	.LVL129:
 183:drive.c       ****                                     
 184:drive.c       ****                         //Step 6
 185:drive.c       ****                         A1_Write(1);
 578              		.loc 1 185 0 discriminator 3
 579 011e 0120     		movs	r0, #1
 580 0120 FFF7FEFF 		bl	A1_Write
 581              	.LVL130:
 186:drive.c       ****                         A2_Write(1);
 582              		.loc 1 186 0 discriminator 3
 583 0124 0120     		movs	r0, #1
 584 0126 FFF7FEFF 		bl	A2_Write
 585              	.LVL131:
 187:drive.c       ****                         B1_Write(0);
 586              		.loc 1 187 0 discriminator 3
 587 012a 0020     		movs	r0, #0
 588 012c FFF7FEFF 		bl	B1_Write
 589              	.LVL132:
 188:drive.c       ****                         B2_Write(0);
 590              		.loc 1 188 0 discriminator 3
 591 0130 0020     		movs	r0, #0
 592 0132 FFF7FEFF 		bl	B2_Write
 593              	.LVL133:
 189:drive.c       ****                          A3_Write(1);
 594              		.loc 1 189 0 discriminator 3
 595 0136 0120     		movs	r0, #1
 596 0138 FFF7FEFF 		bl	A3_Write
 597              	.LVL134:
 190:drive.c       ****         A4_Write(1);
 598              		.loc 1 190 0 discriminator 3
 599 013c 0120     		movs	r0, #1
 600 013e FFF7FEFF 		bl	A4_Write
 601              	.LVL135:
 191:drive.c       ****         B3_Write(0);
 602              		.loc 1 191 0 discriminator 3
 603 0142 0020     		movs	r0, #0
 604 0144 FFF7FEFF 		bl	B3_Write
 605              	.LVL136:
ARM GAS  C:\Users\andre\AppData\Local\Temp\cc8heMPl.s 			page 15


 192:drive.c       ****         B4_Write(0);
 606              		.loc 1 192 0 discriminator 3
 607 0148 0020     		movs	r0, #0
 608 014a FFF7FEFF 		bl	B4_Write
 609              	.LVL137:
 193:drive.c       ****         CyDelayUs(hastighed);
 610              		.loc 1 193 0 discriminator 3
 611 014e 40F2DC50 		movw	r0, #1500
 612 0152 FFF7FEFF 		bl	CyDelayUs
 613              	.LVL138:
 194:drive.c       ****                                     
 195:drive.c       ****                         //Step 7
 196:drive.c       ****                         A1_Write(1);
 614              		.loc 1 196 0 discriminator 3
 615 0156 0120     		movs	r0, #1
 616 0158 FFF7FEFF 		bl	A1_Write
 617              	.LVL139:
 197:drive.c       ****                         A2_Write(0);
 618              		.loc 1 197 0 discriminator 3
 619 015c 0020     		movs	r0, #0
 620 015e FFF7FEFF 		bl	A2_Write
 621              	.LVL140:
 198:drive.c       ****                         B1_Write(0);
 622              		.loc 1 198 0 discriminator 3
 623 0162 0020     		movs	r0, #0
 624 0164 FFF7FEFF 		bl	B1_Write
 625              	.LVL141:
 199:drive.c       ****                         B2_Write(0);
 626              		.loc 1 199 0 discriminator 3
 627 0168 0020     		movs	r0, #0
 628 016a FFF7FEFF 		bl	B2_Write
 629              	.LVL142:
 200:drive.c       ****                         A3_Write(1);
 630              		.loc 1 200 0 discriminator 3
 631 016e 0120     		movs	r0, #1
 632 0170 FFF7FEFF 		bl	A3_Write
 633              	.LVL143:
 201:drive.c       ****         A4_Write(0);
 634              		.loc 1 201 0 discriminator 3
 635 0174 0020     		movs	r0, #0
 636 0176 FFF7FEFF 		bl	A4_Write
 637              	.LVL144:
 202:drive.c       ****         B3_Write(0);
 638              		.loc 1 202 0 discriminator 3
 639 017a 0020     		movs	r0, #0
 640 017c FFF7FEFF 		bl	B3_Write
 641              	.LVL145:
 203:drive.c       ****         B4_Write(0);
 642              		.loc 1 203 0 discriminator 3
 643 0180 0020     		movs	r0, #0
 644 0182 FFF7FEFF 		bl	B4_Write
 645              	.LVL146:
 204:drive.c       ****         CyDelayUs(hastighed);
 646              		.loc 1 204 0 discriminator 3
 647 0186 40F2DC50 		movw	r0, #1500
 648 018a FFF7FEFF 		bl	CyDelayUs
 649              	.LVL147:
ARM GAS  C:\Users\andre\AppData\Local\Temp\cc8heMPl.s 			page 16


 205:drive.c       ****                                    
 206:drive.c       ****                         //Step 8
 207:drive.c       ****                         A1_Write(1);
 650              		.loc 1 207 0 discriminator 3
 651 018e 0120     		movs	r0, #1
 652 0190 FFF7FEFF 		bl	A1_Write
 653              	.LVL148:
 208:drive.c       ****                         A2_Write(0);
 654              		.loc 1 208 0 discriminator 3
 655 0194 0020     		movs	r0, #0
 656 0196 FFF7FEFF 		bl	A2_Write
 657              	.LVL149:
 209:drive.c       ****                         B1_Write(0);
 658              		.loc 1 209 0 discriminator 3
 659 019a 0020     		movs	r0, #0
 660 019c FFF7FEFF 		bl	B1_Write
 661              	.LVL150:
 210:drive.c       ****                         B2_Write(1);
 662              		.loc 1 210 0 discriminator 3
 663 01a0 0120     		movs	r0, #1
 664 01a2 FFF7FEFF 		bl	B2_Write
 665              	.LVL151:
 211:drive.c       ****                         A3_Write(1);
 666              		.loc 1 211 0 discriminator 3
 667 01a6 0120     		movs	r0, #1
 668 01a8 FFF7FEFF 		bl	A3_Write
 669              	.LVL152:
 212:drive.c       ****         A4_Write(0);
 670              		.loc 1 212 0 discriminator 3
 671 01ac 0020     		movs	r0, #0
 672 01ae FFF7FEFF 		bl	A4_Write
 673              	.LVL153:
 213:drive.c       ****         B3_Write(0);
 674              		.loc 1 213 0 discriminator 3
 675 01b2 0020     		movs	r0, #0
 676 01b4 FFF7FEFF 		bl	B3_Write
 677              	.LVL154:
 214:drive.c       ****         B4_Write(1);
 678              		.loc 1 214 0 discriminator 3
 679 01b8 0120     		movs	r0, #1
 680 01ba FFF7FEFF 		bl	B4_Write
 681              	.LVL155:
 215:drive.c       ****         CyDelayUs(hastighed);
 682              		.loc 1 215 0 discriminator 3
 683 01be 40F2DC50 		movw	r0, #1500
 684 01c2 FFF7FEFF 		bl	CyDelayUs
 685              	.LVL156:
 686              	.LBE3:
 127:drive.c       ****     {
 687              		.loc 1 127 0 discriminator 3
 688 01c6 0134     		adds	r4, r4, #1
 689              	.LVL157:
 690              	.L6:
 127:drive.c       ****     {
 691              		.loc 1 127 0 is_stmt 0 discriminator 1
 692 01c8 B4F52A7F 		cmp	r4, #680
 693 01cc FFF61BAF 		blt	.L7
ARM GAS  C:\Users\andre\AppData\Local\Temp\cc8heMPl.s 			page 17


 216:drive.c       ****     }
 217:drive.c       ****     //Reset mod kortslutning
 218:drive.c       ****                     A1_Write(0);
 694              		.loc 1 218 0 is_stmt 1
 695 01d0 0020     		movs	r0, #0
 696 01d2 FFF7FEFF 		bl	A1_Write
 697              	.LVL158:
 219:drive.c       ****                     A2_Write(0);
 698              		.loc 1 219 0
 699 01d6 0020     		movs	r0, #0
 700 01d8 FFF7FEFF 		bl	A2_Write
 701              	.LVL159:
 220:drive.c       ****                     B1_Write(0);
 702              		.loc 1 220 0
 703 01dc 0020     		movs	r0, #0
 704 01de FFF7FEFF 		bl	B1_Write
 705              	.LVL160:
 221:drive.c       ****                     B2_Write(0);
 706              		.loc 1 221 0
 707 01e2 0020     		movs	r0, #0
 708 01e4 FFF7FEFF 		bl	B2_Write
 709              	.LVL161:
 222:drive.c       ****                     //Reset mod kortslutning
 223:drive.c       ****     A3_Write(0);
 710              		.loc 1 223 0
 711 01e8 0020     		movs	r0, #0
 712 01ea FFF7FEFF 		bl	A3_Write
 713              	.LVL162:
 224:drive.c       ****     A4_Write(0);
 714              		.loc 1 224 0
 715 01ee 0020     		movs	r0, #0
 716 01f0 FFF7FEFF 		bl	A4_Write
 717              	.LVL163:
 225:drive.c       ****     B3_Write(0);
 718              		.loc 1 225 0
 719 01f4 0020     		movs	r0, #0
 720 01f6 FFF7FEFF 		bl	B3_Write
 721              	.LVL164:
 226:drive.c       ****     B4_Write(0);
 722              		.loc 1 226 0
 723 01fa 0020     		movs	r0, #0
 724 01fc FFF7FEFF 		bl	B4_Write
 725              	.LVL165:
 726 0200 10BD     		pop	{r4, pc}
 727              		.cfi_endproc
 728              	.LFE1:
 729              		.size	runBackward, .-runBackward
 730 0202 00BF     		.section	.text.turnLeft,"ax",%progbits
 731              		.align	2
 732              		.global	turnLeft
 733              		.thumb
 734              		.thumb_func
 735              		.type	turnLeft, %function
 736              	turnLeft:
 737              	.LFB2:
 227:drive.c       ****  }
 228:drive.c       **** 
ARM GAS  C:\Users\andre\AppData\Local\Temp\cc8heMPl.s 			page 18


 229:drive.c       **** void turnLeft()
 230:drive.c       **** {
 738              		.loc 1 230 0
 739              		.cfi_startproc
 740              		@ args = 0, pretend = 0, frame = 0
 741              		@ frame_needed = 0, uses_anonymous_args = 0
 742 0000 10B5     		push	{r4, lr}
 743              		.cfi_def_cfa_offset 8
 744              		.cfi_offset 4, -8
 745              		.cfi_offset 14, -4
 746              	.LVL166:
 231:drive.c       ****   int x;
 232:drive.c       ****     
 233:drive.c       ****     for(x = 0; x < 824; x = x + 1)
 747              		.loc 1 233 0
 748 0002 0024     		movs	r4, #0
 749 0004 E0E0     		b	.L10
 750              	.LVL167:
 751              	.L11:
 752              	.LBB4:
 234:drive.c       ****     {
 235:drive.c       ****          //Step 1
 236:drive.c       ****                         A1_Write(0);
 753              		.loc 1 236 0 discriminator 3
 754 0006 0020     		movs	r0, #0
 755 0008 FFF7FEFF 		bl	A1_Write
 756              	.LVL168:
 237:drive.c       ****                         A2_Write(0);
 757              		.loc 1 237 0 discriminator 3
 758 000c 0020     		movs	r0, #0
 759 000e FFF7FEFF 		bl	A2_Write
 760              	.LVL169:
 238:drive.c       ****                         B1_Write(0);
 761              		.loc 1 238 0 discriminator 3
 762 0012 0020     		movs	r0, #0
 763 0014 FFF7FEFF 		bl	B1_Write
 764              	.LVL170:
 239:drive.c       ****                         B2_Write(1);
 765              		.loc 1 239 0 discriminator 3
 766 0018 0120     		movs	r0, #1
 767 001a FFF7FEFF 		bl	B2_Write
 768              	.LVL171:
 240:drive.c       ****                         A3_Write(0);
 769              		.loc 1 240 0 discriminator 3
 770 001e 0020     		movs	r0, #0
 771 0020 FFF7FEFF 		bl	A3_Write
 772              	.LVL172:
 241:drive.c       ****         A4_Write(0);
 773              		.loc 1 241 0 discriminator 3
 774 0024 0020     		movs	r0, #0
 775 0026 FFF7FEFF 		bl	A4_Write
 776              	.LVL173:
 242:drive.c       ****         B3_Write(0);
 777              		.loc 1 242 0 discriminator 3
 778 002a 0020     		movs	r0, #0
 779 002c FFF7FEFF 		bl	B3_Write
 780              	.LVL174:
ARM GAS  C:\Users\andre\AppData\Local\Temp\cc8heMPl.s 			page 19


 243:drive.c       ****         B4_Write(1);
 781              		.loc 1 243 0 discriminator 3
 782 0030 0120     		movs	r0, #1
 783 0032 FFF7FEFF 		bl	B4_Write
 784              	.LVL175:
 244:drive.c       ****         CyDelayUs(hastighed);
 785              		.loc 1 244 0 discriminator 3
 786 0036 40F2DC50 		movw	r0, #1500
 787 003a FFF7FEFF 		bl	CyDelayUs
 788              	.LVL176:
 245:drive.c       ****                                     
 246:drive.c       ****                         //Step 2
 247:drive.c       ****                         A1_Write(1);
 789              		.loc 1 247 0 discriminator 3
 790 003e 0120     		movs	r0, #1
 791 0040 FFF7FEFF 		bl	A1_Write
 792              	.LVL177:
 248:drive.c       ****                         A2_Write(0);
 793              		.loc 1 248 0 discriminator 3
 794 0044 0020     		movs	r0, #0
 795 0046 FFF7FEFF 		bl	A2_Write
 796              	.LVL178:
 249:drive.c       ****                         B1_Write(0);
 797              		.loc 1 249 0 discriminator 3
 798 004a 0020     		movs	r0, #0
 799 004c FFF7FEFF 		bl	B1_Write
 800              	.LVL179:
 250:drive.c       ****                         B2_Write(1);
 801              		.loc 1 250 0 discriminator 3
 802 0050 0120     		movs	r0, #1
 803 0052 FFF7FEFF 		bl	B2_Write
 804              	.LVL180:
 251:drive.c       ****                         A3_Write(0);
 805              		.loc 1 251 0 discriminator 3
 806 0056 0020     		movs	r0, #0
 807 0058 FFF7FEFF 		bl	A3_Write
 808              	.LVL181:
 252:drive.c       ****         A4_Write(0);
 809              		.loc 1 252 0 discriminator 3
 810 005c 0020     		movs	r0, #0
 811 005e FFF7FEFF 		bl	A4_Write
 812              	.LVL182:
 253:drive.c       ****         B3_Write(1);
 813              		.loc 1 253 0 discriminator 3
 814 0062 0120     		movs	r0, #1
 815 0064 FFF7FEFF 		bl	B3_Write
 816              	.LVL183:
 254:drive.c       ****         B4_Write(1);
 817              		.loc 1 254 0 discriminator 3
 818 0068 0120     		movs	r0, #1
 819 006a FFF7FEFF 		bl	B4_Write
 820              	.LVL184:
 255:drive.c       ****         CyDelayUs(hastighed);
 821              		.loc 1 255 0 discriminator 3
 822 006e 40F2DC50 		movw	r0, #1500
 823 0072 FFF7FEFF 		bl	CyDelayUs
 824              	.LVL185:
ARM GAS  C:\Users\andre\AppData\Local\Temp\cc8heMPl.s 			page 20


 256:drive.c       ****                                     
 257:drive.c       ****                         //Step 3
 258:drive.c       ****                         A1_Write(1);
 825              		.loc 1 258 0 discriminator 3
 826 0076 0120     		movs	r0, #1
 827 0078 FFF7FEFF 		bl	A1_Write
 828              	.LVL186:
 259:drive.c       ****                         A2_Write(0);
 829              		.loc 1 259 0 discriminator 3
 830 007c 0020     		movs	r0, #0
 831 007e FFF7FEFF 		bl	A2_Write
 832              	.LVL187:
 260:drive.c       ****                         B1_Write(0);
 833              		.loc 1 260 0 discriminator 3
 834 0082 0020     		movs	r0, #0
 835 0084 FFF7FEFF 		bl	B1_Write
 836              	.LVL188:
 261:drive.c       ****                         B2_Write(0);
 837              		.loc 1 261 0 discriminator 3
 838 0088 0020     		movs	r0, #0
 839 008a FFF7FEFF 		bl	B2_Write
 840              	.LVL189:
 262:drive.c       ****                         A3_Write(0);
 841              		.loc 1 262 0 discriminator 3
 842 008e 0020     		movs	r0, #0
 843 0090 FFF7FEFF 		bl	A3_Write
 844              	.LVL190:
 263:drive.c       ****         A4_Write(0);
 845              		.loc 1 263 0 discriminator 3
 846 0094 0020     		movs	r0, #0
 847 0096 FFF7FEFF 		bl	A4_Write
 848              	.LVL191:
 264:drive.c       ****         B3_Write(1);
 849              		.loc 1 264 0 discriminator 3
 850 009a 0120     		movs	r0, #1
 851 009c FFF7FEFF 		bl	B3_Write
 852              	.LVL192:
 265:drive.c       ****         B4_Write(0);
 853              		.loc 1 265 0 discriminator 3
 854 00a0 0020     		movs	r0, #0
 855 00a2 FFF7FEFF 		bl	B4_Write
 856              	.LVL193:
 266:drive.c       ****         CyDelayUs(hastighed);
 857              		.loc 1 266 0 discriminator 3
 858 00a6 40F2DC50 		movw	r0, #1500
 859 00aa FFF7FEFF 		bl	CyDelayUs
 860              	.LVL194:
 267:drive.c       ****                                    
 268:drive.c       ****                         //Step 4
 269:drive.c       ****                         A1_Write(1);
 861              		.loc 1 269 0 discriminator 3
 862 00ae 0120     		movs	r0, #1
 863 00b0 FFF7FEFF 		bl	A1_Write
 864              	.LVL195:
 270:drive.c       ****                         A2_Write(1);
 865              		.loc 1 270 0 discriminator 3
 866 00b4 0120     		movs	r0, #1
ARM GAS  C:\Users\andre\AppData\Local\Temp\cc8heMPl.s 			page 21


 867 00b6 FFF7FEFF 		bl	A2_Write
 868              	.LVL196:
 271:drive.c       ****                         B1_Write(0);
 869              		.loc 1 271 0 discriminator 3
 870 00ba 0020     		movs	r0, #0
 871 00bc FFF7FEFF 		bl	B1_Write
 872              	.LVL197:
 272:drive.c       ****                         B2_Write(0);
 873              		.loc 1 272 0 discriminator 3
 874 00c0 0020     		movs	r0, #0
 875 00c2 FFF7FEFF 		bl	B2_Write
 876              	.LVL198:
 273:drive.c       ****                         A3_Write(0);
 877              		.loc 1 273 0 discriminator 3
 878 00c6 0020     		movs	r0, #0
 879 00c8 FFF7FEFF 		bl	A3_Write
 880              	.LVL199:
 274:drive.c       ****         A4_Write(1);
 881              		.loc 1 274 0 discriminator 3
 882 00cc 0120     		movs	r0, #1
 883 00ce FFF7FEFF 		bl	A4_Write
 884              	.LVL200:
 275:drive.c       ****         B3_Write(1);
 885              		.loc 1 275 0 discriminator 3
 886 00d2 0120     		movs	r0, #1
 887 00d4 FFF7FEFF 		bl	B3_Write
 888              	.LVL201:
 276:drive.c       ****         B4_Write(0);
 889              		.loc 1 276 0 discriminator 3
 890 00d8 0020     		movs	r0, #0
 891 00da FFF7FEFF 		bl	B4_Write
 892              	.LVL202:
 277:drive.c       ****         CyDelayUs(hastighed);
 893              		.loc 1 277 0 discriminator 3
 894 00de 40F2DC50 		movw	r0, #1500
 895 00e2 FFF7FEFF 		bl	CyDelayUs
 896              	.LVL203:
 278:drive.c       ****                         
 279:drive.c       ****                         //Step 5
 280:drive.c       ****                         A1_Write(0);
 897              		.loc 1 280 0 discriminator 3
 898 00e6 0020     		movs	r0, #0
 899 00e8 FFF7FEFF 		bl	A1_Write
 900              	.LVL204:
 281:drive.c       ****                         A2_Write(1);
 901              		.loc 1 281 0 discriminator 3
 902 00ec 0120     		movs	r0, #1
 903 00ee FFF7FEFF 		bl	A2_Write
 904              	.LVL205:
 282:drive.c       ****                         B1_Write(0);
 905              		.loc 1 282 0 discriminator 3
 906 00f2 0020     		movs	r0, #0
 907 00f4 FFF7FEFF 		bl	B1_Write
 908              	.LVL206:
 283:drive.c       ****                         B2_Write(0);
 909              		.loc 1 283 0 discriminator 3
 910 00f8 0020     		movs	r0, #0
ARM GAS  C:\Users\andre\AppData\Local\Temp\cc8heMPl.s 			page 22


 911 00fa FFF7FEFF 		bl	B2_Write
 912              	.LVL207:
 284:drive.c       ****                         A3_Write(0);
 913              		.loc 1 284 0 discriminator 3
 914 00fe 0020     		movs	r0, #0
 915 0100 FFF7FEFF 		bl	A3_Write
 916              	.LVL208:
 285:drive.c       ****         A4_Write(1);
 917              		.loc 1 285 0 discriminator 3
 918 0104 0120     		movs	r0, #1
 919 0106 FFF7FEFF 		bl	A4_Write
 920              	.LVL209:
 286:drive.c       ****         B3_Write(0);
 921              		.loc 1 286 0 discriminator 3
 922 010a 0020     		movs	r0, #0
 923 010c FFF7FEFF 		bl	B3_Write
 924              	.LVL210:
 287:drive.c       ****         B4_Write(0);
 925              		.loc 1 287 0 discriminator 3
 926 0110 0020     		movs	r0, #0
 927 0112 FFF7FEFF 		bl	B4_Write
 928              	.LVL211:
 288:drive.c       ****         CyDelayUs(hastighed);
 929              		.loc 1 288 0 discriminator 3
 930 0116 40F2DC50 		movw	r0, #1500
 931 011a FFF7FEFF 		bl	CyDelayUs
 932              	.LVL212:
 289:drive.c       ****                         
 290:drive.c       ****                         //Step 6
 291:drive.c       ****                         A1_Write(0);
 933              		.loc 1 291 0 discriminator 3
 934 011e 0020     		movs	r0, #0
 935 0120 FFF7FEFF 		bl	A1_Write
 936              	.LVL213:
 292:drive.c       ****                         A2_Write(1);
 937              		.loc 1 292 0 discriminator 3
 938 0124 0120     		movs	r0, #1
 939 0126 FFF7FEFF 		bl	A2_Write
 940              	.LVL214:
 293:drive.c       ****                         B1_Write(1);
 941              		.loc 1 293 0 discriminator 3
 942 012a 0120     		movs	r0, #1
 943 012c FFF7FEFF 		bl	B1_Write
 944              	.LVL215:
 294:drive.c       ****                         B2_Write(0);
 945              		.loc 1 294 0 discriminator 3
 946 0130 0020     		movs	r0, #0
 947 0132 FFF7FEFF 		bl	B2_Write
 948              	.LVL216:
 295:drive.c       ****                         A3_Write(1);
 949              		.loc 1 295 0 discriminator 3
 950 0136 0120     		movs	r0, #1
 951 0138 FFF7FEFF 		bl	A3_Write
 952              	.LVL217:
 296:drive.c       ****         A4_Write(1);
 953              		.loc 1 296 0 discriminator 3
 954 013c 0120     		movs	r0, #1
ARM GAS  C:\Users\andre\AppData\Local\Temp\cc8heMPl.s 			page 23


 955 013e FFF7FEFF 		bl	A4_Write
 956              	.LVL218:
 297:drive.c       ****         B3_Write(0);
 957              		.loc 1 297 0 discriminator 3
 958 0142 0020     		movs	r0, #0
 959 0144 FFF7FEFF 		bl	B3_Write
 960              	.LVL219:
 298:drive.c       ****         B4_Write(0);
 961              		.loc 1 298 0 discriminator 3
 962 0148 0020     		movs	r0, #0
 963 014a FFF7FEFF 		bl	B4_Write
 964              	.LVL220:
 299:drive.c       ****         CyDelayUs(hastighed);
 965              		.loc 1 299 0 discriminator 3
 966 014e 40F2DC50 		movw	r0, #1500
 967 0152 FFF7FEFF 		bl	CyDelayUs
 968              	.LVL221:
 300:drive.c       ****                                     
 301:drive.c       ****                         //Step 7
 302:drive.c       ****                         A1_Write(0);
 969              		.loc 1 302 0 discriminator 3
 970 0156 0020     		movs	r0, #0
 971 0158 FFF7FEFF 		bl	A1_Write
 972              	.LVL222:
 303:drive.c       ****                         A2_Write(0);
 973              		.loc 1 303 0 discriminator 3
 974 015c 0020     		movs	r0, #0
 975 015e FFF7FEFF 		bl	A2_Write
 976              	.LVL223:
 304:drive.c       ****                         B1_Write(1);
 977              		.loc 1 304 0 discriminator 3
 978 0162 0120     		movs	r0, #1
 979 0164 FFF7FEFF 		bl	B1_Write
 980              	.LVL224:
 305:drive.c       ****                         B2_Write(0);
 981              		.loc 1 305 0 discriminator 3
 982 0168 0020     		movs	r0, #0
 983 016a FFF7FEFF 		bl	B2_Write
 984              	.LVL225:
 306:drive.c       ****                         A3_Write(1);
 985              		.loc 1 306 0 discriminator 3
 986 016e 0120     		movs	r0, #1
 987 0170 FFF7FEFF 		bl	A3_Write
 988              	.LVL226:
 307:drive.c       ****         A4_Write(0);
 989              		.loc 1 307 0 discriminator 3
 990 0174 0020     		movs	r0, #0
 991 0176 FFF7FEFF 		bl	A4_Write
 992              	.LVL227:
 308:drive.c       ****         B3_Write(0);
 993              		.loc 1 308 0 discriminator 3
 994 017a 0020     		movs	r0, #0
 995 017c FFF7FEFF 		bl	B3_Write
 996              	.LVL228:
 309:drive.c       ****         B4_Write(0);
 997              		.loc 1 309 0 discriminator 3
 998 0180 0020     		movs	r0, #0
ARM GAS  C:\Users\andre\AppData\Local\Temp\cc8heMPl.s 			page 24


 999 0182 FFF7FEFF 		bl	B4_Write
 1000              	.LVL229:
 310:drive.c       ****         CyDelayUs(hastighed);
 1001              		.loc 1 310 0 discriminator 3
 1002 0186 40F2DC50 		movw	r0, #1500
 1003 018a FFF7FEFF 		bl	CyDelayUs
 1004              	.LVL230:
 311:drive.c       ****                                     
 312:drive.c       ****                         //Step 8
 313:drive.c       ****                         A1_Write(0);
 1005              		.loc 1 313 0 discriminator 3
 1006 018e 0020     		movs	r0, #0
 1007 0190 FFF7FEFF 		bl	A1_Write
 1008              	.LVL231:
 314:drive.c       ****                         A2_Write(0);
 1009              		.loc 1 314 0 discriminator 3
 1010 0194 0020     		movs	r0, #0
 1011 0196 FFF7FEFF 		bl	A2_Write
 1012              	.LVL232:
 315:drive.c       ****                         B1_Write(1);
 1013              		.loc 1 315 0 discriminator 3
 1014 019a 0120     		movs	r0, #1
 1015 019c FFF7FEFF 		bl	B1_Write
 1016              	.LVL233:
 316:drive.c       ****                         B2_Write(1);
 1017              		.loc 1 316 0 discriminator 3
 1018 01a0 0120     		movs	r0, #1
 1019 01a2 FFF7FEFF 		bl	B2_Write
 1020              	.LVL234:
 317:drive.c       ****                         A3_Write(1);
 1021              		.loc 1 317 0 discriminator 3
 1022 01a6 0120     		movs	r0, #1
 1023 01a8 FFF7FEFF 		bl	A3_Write
 1024              	.LVL235:
 318:drive.c       ****         A4_Write(0);
 1025              		.loc 1 318 0 discriminator 3
 1026 01ac 0020     		movs	r0, #0
 1027 01ae FFF7FEFF 		bl	A4_Write
 1028              	.LVL236:
 319:drive.c       ****         B3_Write(0);
 1029              		.loc 1 319 0 discriminator 3
 1030 01b2 0020     		movs	r0, #0
 1031 01b4 FFF7FEFF 		bl	B3_Write
 1032              	.LVL237:
 320:drive.c       ****         B4_Write(1);
 1033              		.loc 1 320 0 discriminator 3
 1034 01b8 0120     		movs	r0, #1
 1035 01ba FFF7FEFF 		bl	B4_Write
 1036              	.LVL238:
 321:drive.c       ****         CyDelayUs(hastighed);
 1037              		.loc 1 321 0 discriminator 3
 1038 01be 40F2DC50 		movw	r0, #1500
 1039 01c2 FFF7FEFF 		bl	CyDelayUs
 1040              	.LVL239:
 1041              	.LBE4:
 233:drive.c       ****     {
 1042              		.loc 1 233 0 discriminator 3
ARM GAS  C:\Users\andre\AppData\Local\Temp\cc8heMPl.s 			page 25


 1043 01c6 0134     		adds	r4, r4, #1
 1044              	.LVL240:
 1045              	.L10:
 233:drive.c       ****     {
 1046              		.loc 1 233 0 is_stmt 0 discriminator 1
 1047 01c8 B4F54E7F 		cmp	r4, #824
 1048 01cc FFF61BAF 		blt	.L11
 322:drive.c       ****         
 323:drive.c       ****     }
 324:drive.c       ****  }
 1049              		.loc 1 324 0 is_stmt 1
 1050 01d0 10BD     		pop	{r4, pc}
 1051              		.cfi_endproc
 1052              	.LFE2:
 1053              		.size	turnLeft, .-turnLeft
 1054 01d2 00BF     		.section	.text.turnRight,"ax",%progbits
 1055              		.align	2
 1056              		.global	turnRight
 1057              		.thumb
 1058              		.thumb_func
 1059              		.type	turnRight, %function
 1060              	turnRight:
 1061              	.LFB3:
 325:drive.c       **** 
 326:drive.c       **** 
 327:drive.c       **** void turnRight()
 328:drive.c       **** {
 1062              		.loc 1 328 0
 1063              		.cfi_startproc
 1064              		@ args = 0, pretend = 0, frame = 0
 1065              		@ frame_needed = 0, uses_anonymous_args = 0
 1066 0000 10B5     		push	{r4, lr}
 1067              		.cfi_def_cfa_offset 8
 1068              		.cfi_offset 4, -8
 1069              		.cfi_offset 14, -4
 1070              	.LVL241:
 329:drive.c       ****   int x;
 330:drive.c       ****     
 331:drive.c       ****     for(x = 0; x < 880; x = x + 1)
 1071              		.loc 1 331 0
 1072 0002 0024     		movs	r4, #0
 1073 0004 E0E0     		b	.L14
 1074              	.LVL242:
 1075              	.L15:
 1076              	.LBB5:
 332:drive.c       ****     {
 333:drive.c       ****         //Step 1
 334:drive.c       ****                         A1_Write(0);
 1077              		.loc 1 334 0 discriminator 3
 1078 0006 0020     		movs	r0, #0
 1079 0008 FFF7FEFF 		bl	A1_Write
 1080              	.LVL243:
 335:drive.c       ****                         A2_Write(0);
 1081              		.loc 1 335 0 discriminator 3
 1082 000c 0020     		movs	r0, #0
 1083 000e FFF7FEFF 		bl	A2_Write
 1084              	.LVL244:
ARM GAS  C:\Users\andre\AppData\Local\Temp\cc8heMPl.s 			page 26


 336:drive.c       ****                         B1_Write(0);
 1085              		.loc 1 336 0 discriminator 3
 1086 0012 0020     		movs	r0, #0
 1087 0014 FFF7FEFF 		bl	B1_Write
 1088              	.LVL245:
 337:drive.c       ****                         B2_Write(1);
 1089              		.loc 1 337 0 discriminator 3
 1090 0018 0120     		movs	r0, #1
 1091 001a FFF7FEFF 		bl	B2_Write
 1092              	.LVL246:
 338:drive.c       ****         A3_Write(0);
 1093              		.loc 1 338 0 discriminator 3
 1094 001e 0020     		movs	r0, #0
 1095 0020 FFF7FEFF 		bl	A3_Write
 1096              	.LVL247:
 339:drive.c       ****         A4_Write(0);
 1097              		.loc 1 339 0 discriminator 3
 1098 0024 0020     		movs	r0, #0
 1099 0026 FFF7FEFF 		bl	A4_Write
 1100              	.LVL248:
 340:drive.c       ****         B3_Write(0);
 1101              		.loc 1 340 0 discriminator 3
 1102 002a 0020     		movs	r0, #0
 1103 002c FFF7FEFF 		bl	B3_Write
 1104              	.LVL249:
 341:drive.c       ****         B4_Write(1);
 1105              		.loc 1 341 0 discriminator 3
 1106 0030 0120     		movs	r0, #1
 1107 0032 FFF7FEFF 		bl	B4_Write
 1108              	.LVL250:
 342:drive.c       ****         CyDelayUs(hastighed);
 1109              		.loc 1 342 0 discriminator 3
 1110 0036 40F2DC50 		movw	r0, #1500
 1111 003a FFF7FEFF 		bl	CyDelayUs
 1112              	.LVL251:
 343:drive.c       ****                                     
 344:drive.c       ****                         //Step 2
 345:drive.c       ****                         A1_Write(0);
 1113              		.loc 1 345 0 discriminator 3
 1114 003e 0020     		movs	r0, #0
 1115 0040 FFF7FEFF 		bl	A1_Write
 1116              	.LVL252:
 346:drive.c       ****                         A2_Write(0);
 1117              		.loc 1 346 0 discriminator 3
 1118 0044 0020     		movs	r0, #0
 1119 0046 FFF7FEFF 		bl	A2_Write
 1120              	.LVL253:
 347:drive.c       ****                         B1_Write(1);
 1121              		.loc 1 347 0 discriminator 3
 1122 004a 0120     		movs	r0, #1
 1123 004c FFF7FEFF 		bl	B1_Write
 1124              	.LVL254:
 348:drive.c       ****                         B2_Write(1);
 1125              		.loc 1 348 0 discriminator 3
 1126 0050 0120     		movs	r0, #1
 1127 0052 FFF7FEFF 		bl	B2_Write
 1128              	.LVL255:
ARM GAS  C:\Users\andre\AppData\Local\Temp\cc8heMPl.s 			page 27


 349:drive.c       ****                         A3_Write(0);
 1129              		.loc 1 349 0 discriminator 3
 1130 0056 0020     		movs	r0, #0
 1131 0058 FFF7FEFF 		bl	A3_Write
 1132              	.LVL256:
 350:drive.c       ****         A4_Write(0);
 1133              		.loc 1 350 0 discriminator 3
 1134 005c 0020     		movs	r0, #0
 1135 005e FFF7FEFF 		bl	A4_Write
 1136              	.LVL257:
 351:drive.c       ****         B3_Write(1);
 1137              		.loc 1 351 0 discriminator 3
 1138 0062 0120     		movs	r0, #1
 1139 0064 FFF7FEFF 		bl	B3_Write
 1140              	.LVL258:
 352:drive.c       ****         B4_Write(1);
 1141              		.loc 1 352 0 discriminator 3
 1142 0068 0120     		movs	r0, #1
 1143 006a FFF7FEFF 		bl	B4_Write
 1144              	.LVL259:
 353:drive.c       ****         CyDelayUs(hastighed);
 1145              		.loc 1 353 0 discriminator 3
 1146 006e 40F2DC50 		movw	r0, #1500
 1147 0072 FFF7FEFF 		bl	CyDelayUs
 1148              	.LVL260:
 354:drive.c       ****                                     
 355:drive.c       ****                         //Step 3
 356:drive.c       ****                         A1_Write(0);
 1149              		.loc 1 356 0 discriminator 3
 1150 0076 0020     		movs	r0, #0
 1151 0078 FFF7FEFF 		bl	A1_Write
 1152              	.LVL261:
 357:drive.c       ****                         A2_Write(0);
 1153              		.loc 1 357 0 discriminator 3
 1154 007c 0020     		movs	r0, #0
 1155 007e FFF7FEFF 		bl	A2_Write
 1156              	.LVL262:
 358:drive.c       ****                         B1_Write(1);
 1157              		.loc 1 358 0 discriminator 3
 1158 0082 0120     		movs	r0, #1
 1159 0084 FFF7FEFF 		bl	B1_Write
 1160              	.LVL263:
 359:drive.c       ****                         B2_Write(0);
 1161              		.loc 1 359 0 discriminator 3
 1162 0088 0020     		movs	r0, #0
 1163 008a FFF7FEFF 		bl	B2_Write
 1164              	.LVL264:
 360:drive.c       ****                          A3_Write(0);
 1165              		.loc 1 360 0 discriminator 3
 1166 008e 0020     		movs	r0, #0
 1167 0090 FFF7FEFF 		bl	A3_Write
 1168              	.LVL265:
 361:drive.c       ****         A4_Write(0);
 1169              		.loc 1 361 0 discriminator 3
 1170 0094 0020     		movs	r0, #0
 1171 0096 FFF7FEFF 		bl	A4_Write
 1172              	.LVL266:
ARM GAS  C:\Users\andre\AppData\Local\Temp\cc8heMPl.s 			page 28


 362:drive.c       ****         B3_Write(1);
 1173              		.loc 1 362 0 discriminator 3
 1174 009a 0120     		movs	r0, #1
 1175 009c FFF7FEFF 		bl	B3_Write
 1176              	.LVL267:
 363:drive.c       ****         B4_Write(0);
 1177              		.loc 1 363 0 discriminator 3
 1178 00a0 0020     		movs	r0, #0
 1179 00a2 FFF7FEFF 		bl	B4_Write
 1180              	.LVL268:
 364:drive.c       ****         CyDelayUs(hastighed);
 1181              		.loc 1 364 0 discriminator 3
 1182 00a6 40F2DC50 		movw	r0, #1500
 1183 00aa FFF7FEFF 		bl	CyDelayUs
 1184              	.LVL269:
 365:drive.c       ****                                    
 366:drive.c       ****                         //Step 4
 367:drive.c       ****                         A1_Write(0);
 1185              		.loc 1 367 0 discriminator 3
 1186 00ae 0020     		movs	r0, #0
 1187 00b0 FFF7FEFF 		bl	A1_Write
 1188              	.LVL270:
 368:drive.c       ****                         A2_Write(1);
 1189              		.loc 1 368 0 discriminator 3
 1190 00b4 0120     		movs	r0, #1
 1191 00b6 FFF7FEFF 		bl	A2_Write
 1192              	.LVL271:
 369:drive.c       ****                         B1_Write(1);
 1193              		.loc 1 369 0 discriminator 3
 1194 00ba 0120     		movs	r0, #1
 1195 00bc FFF7FEFF 		bl	B1_Write
 1196              	.LVL272:
 370:drive.c       ****                         B2_Write(0);
 1197              		.loc 1 370 0 discriminator 3
 1198 00c0 0020     		movs	r0, #0
 1199 00c2 FFF7FEFF 		bl	B2_Write
 1200              	.LVL273:
 371:drive.c       ****                         A3_Write(0);
 1201              		.loc 1 371 0 discriminator 3
 1202 00c6 0020     		movs	r0, #0
 1203 00c8 FFF7FEFF 		bl	A3_Write
 1204              	.LVL274:
 372:drive.c       ****         A4_Write(1);
 1205              		.loc 1 372 0 discriminator 3
 1206 00cc 0120     		movs	r0, #1
 1207 00ce FFF7FEFF 		bl	A4_Write
 1208              	.LVL275:
 373:drive.c       ****         B3_Write(1);
 1209              		.loc 1 373 0 discriminator 3
 1210 00d2 0120     		movs	r0, #1
 1211 00d4 FFF7FEFF 		bl	B3_Write
 1212              	.LVL276:
 374:drive.c       ****         B4_Write(0);
 1213              		.loc 1 374 0 discriminator 3
 1214 00d8 0020     		movs	r0, #0
 1215 00da FFF7FEFF 		bl	B4_Write
 1216              	.LVL277:
ARM GAS  C:\Users\andre\AppData\Local\Temp\cc8heMPl.s 			page 29


 375:drive.c       ****         CyDelayUs(hastighed);
 1217              		.loc 1 375 0 discriminator 3
 1218 00de 40F2DC50 		movw	r0, #1500
 1219 00e2 FFF7FEFF 		bl	CyDelayUs
 1220              	.LVL278:
 376:drive.c       ****                         
 377:drive.c       ****                         //Step 5
 378:drive.c       ****                         A1_Write(0);
 1221              		.loc 1 378 0 discriminator 3
 1222 00e6 0020     		movs	r0, #0
 1223 00e8 FFF7FEFF 		bl	A1_Write
 1224              	.LVL279:
 379:drive.c       ****                         A2_Write(1);
 1225              		.loc 1 379 0 discriminator 3
 1226 00ec 0120     		movs	r0, #1
 1227 00ee FFF7FEFF 		bl	A2_Write
 1228              	.LVL280:
 380:drive.c       ****                         B1_Write(0);
 1229              		.loc 1 380 0 discriminator 3
 1230 00f2 0020     		movs	r0, #0
 1231 00f4 FFF7FEFF 		bl	B1_Write
 1232              	.LVL281:
 381:drive.c       ****                         B2_Write(0);
 1233              		.loc 1 381 0 discriminator 3
 1234 00f8 0020     		movs	r0, #0
 1235 00fa FFF7FEFF 		bl	B2_Write
 1236              	.LVL282:
 382:drive.c       ****                         A3_Write(0);
 1237              		.loc 1 382 0 discriminator 3
 1238 00fe 0020     		movs	r0, #0
 1239 0100 FFF7FEFF 		bl	A3_Write
 1240              	.LVL283:
 383:drive.c       ****         A4_Write(1);
 1241              		.loc 1 383 0 discriminator 3
 1242 0104 0120     		movs	r0, #1
 1243 0106 FFF7FEFF 		bl	A4_Write
 1244              	.LVL284:
 384:drive.c       ****         B3_Write(0);
 1245              		.loc 1 384 0 discriminator 3
 1246 010a 0020     		movs	r0, #0
 1247 010c FFF7FEFF 		bl	B3_Write
 1248              	.LVL285:
 385:drive.c       ****         B4_Write(0);
 1249              		.loc 1 385 0 discriminator 3
 1250 0110 0020     		movs	r0, #0
 1251 0112 FFF7FEFF 		bl	B4_Write
 1252              	.LVL286:
 386:drive.c       ****         CyDelayUs(hastighed);
 1253              		.loc 1 386 0 discriminator 3
 1254 0116 40F2DC50 		movw	r0, #1500
 1255 011a FFF7FEFF 		bl	CyDelayUs
 1256              	.LVL287:
 387:drive.c       ****                                     
 388:drive.c       ****                         //Step 6
 389:drive.c       ****                         A1_Write(1);
 1257              		.loc 1 389 0 discriminator 3
 1258 011e 0120     		movs	r0, #1
ARM GAS  C:\Users\andre\AppData\Local\Temp\cc8heMPl.s 			page 30


 1259 0120 FFF7FEFF 		bl	A1_Write
 1260              	.LVL288:
 390:drive.c       ****                         A2_Write(1);
 1261              		.loc 1 390 0 discriminator 3
 1262 0124 0120     		movs	r0, #1
 1263 0126 FFF7FEFF 		bl	A2_Write
 1264              	.LVL289:
 391:drive.c       ****                         B1_Write(0);
 1265              		.loc 1 391 0 discriminator 3
 1266 012a 0020     		movs	r0, #0
 1267 012c FFF7FEFF 		bl	B1_Write
 1268              	.LVL290:
 392:drive.c       ****                         B2_Write(0);
 1269              		.loc 1 392 0 discriminator 3
 1270 0130 0020     		movs	r0, #0
 1271 0132 FFF7FEFF 		bl	B2_Write
 1272              	.LVL291:
 393:drive.c       ****                         A3_Write(1);
 1273              		.loc 1 393 0 discriminator 3
 1274 0136 0120     		movs	r0, #1
 1275 0138 FFF7FEFF 		bl	A3_Write
 1276              	.LVL292:
 394:drive.c       ****         A4_Write(1);
 1277              		.loc 1 394 0 discriminator 3
 1278 013c 0120     		movs	r0, #1
 1279 013e FFF7FEFF 		bl	A4_Write
 1280              	.LVL293:
 395:drive.c       ****         B3_Write(0);
 1281              		.loc 1 395 0 discriminator 3
 1282 0142 0020     		movs	r0, #0
 1283 0144 FFF7FEFF 		bl	B3_Write
 1284              	.LVL294:
 396:drive.c       ****         B4_Write(0);
 1285              		.loc 1 396 0 discriminator 3
 1286 0148 0020     		movs	r0, #0
 1287 014a FFF7FEFF 		bl	B4_Write
 1288              	.LVL295:
 397:drive.c       ****         CyDelayUs(hastighed);
 1289              		.loc 1 397 0 discriminator 3
 1290 014e 40F2DC50 		movw	r0, #1500
 1291 0152 FFF7FEFF 		bl	CyDelayUs
 1292              	.LVL296:
 398:drive.c       ****                                     
 399:drive.c       ****                         //Step 7
 400:drive.c       ****                         A1_Write(1);
 1293              		.loc 1 400 0 discriminator 3
 1294 0156 0120     		movs	r0, #1
 1295 0158 FFF7FEFF 		bl	A1_Write
 1296              	.LVL297:
 401:drive.c       ****                         A2_Write(0);
 1297              		.loc 1 401 0 discriminator 3
 1298 015c 0020     		movs	r0, #0
 1299 015e FFF7FEFF 		bl	A2_Write
 1300              	.LVL298:
 402:drive.c       ****                         B1_Write(0);
 1301              		.loc 1 402 0 discriminator 3
 1302 0162 0020     		movs	r0, #0
ARM GAS  C:\Users\andre\AppData\Local\Temp\cc8heMPl.s 			page 31


 1303 0164 FFF7FEFF 		bl	B1_Write
 1304              	.LVL299:
 403:drive.c       ****                         B2_Write(0);
 1305              		.loc 1 403 0 discriminator 3
 1306 0168 0020     		movs	r0, #0
 1307 016a FFF7FEFF 		bl	B2_Write
 1308              	.LVL300:
 404:drive.c       ****                         A3_Write(1);
 1309              		.loc 1 404 0 discriminator 3
 1310 016e 0120     		movs	r0, #1
 1311 0170 FFF7FEFF 		bl	A3_Write
 1312              	.LVL301:
 405:drive.c       ****         A4_Write(0);
 1313              		.loc 1 405 0 discriminator 3
 1314 0174 0020     		movs	r0, #0
 1315 0176 FFF7FEFF 		bl	A4_Write
 1316              	.LVL302:
 406:drive.c       ****         B3_Write(0);
 1317              		.loc 1 406 0 discriminator 3
 1318 017a 0020     		movs	r0, #0
 1319 017c FFF7FEFF 		bl	B3_Write
 1320              	.LVL303:
 407:drive.c       ****         B4_Write(0);
 1321              		.loc 1 407 0 discriminator 3
 1322 0180 0020     		movs	r0, #0
 1323 0182 FFF7FEFF 		bl	B4_Write
 1324              	.LVL304:
 408:drive.c       ****         CyDelayUs(hastighed);
 1325              		.loc 1 408 0 discriminator 3
 1326 0186 40F2DC50 		movw	r0, #1500
 1327 018a FFF7FEFF 		bl	CyDelayUs
 1328              	.LVL305:
 409:drive.c       ****                                    
 410:drive.c       ****                         //Step 8
 411:drive.c       ****                         A1_Write(1);
 1329              		.loc 1 411 0 discriminator 3
 1330 018e 0120     		movs	r0, #1
 1331 0190 FFF7FEFF 		bl	A1_Write
 1332              	.LVL306:
 412:drive.c       ****                         A2_Write(0);
 1333              		.loc 1 412 0 discriminator 3
 1334 0194 0020     		movs	r0, #0
 1335 0196 FFF7FEFF 		bl	A2_Write
 1336              	.LVL307:
 413:drive.c       ****                         B1_Write(0);
 1337              		.loc 1 413 0 discriminator 3
 1338 019a 0020     		movs	r0, #0
 1339 019c FFF7FEFF 		bl	B1_Write
 1340              	.LVL308:
 414:drive.c       ****                         B2_Write(1);
 1341              		.loc 1 414 0 discriminator 3
 1342 01a0 0120     		movs	r0, #1
 1343 01a2 FFF7FEFF 		bl	B2_Write
 1344              	.LVL309:
 415:drive.c       ****                         A3_Write(1);
 1345              		.loc 1 415 0 discriminator 3
 1346 01a6 0120     		movs	r0, #1
ARM GAS  C:\Users\andre\AppData\Local\Temp\cc8heMPl.s 			page 32


 1347 01a8 FFF7FEFF 		bl	A3_Write
 1348              	.LVL310:
 416:drive.c       ****         A4_Write(0);
 1349              		.loc 1 416 0 discriminator 3
 1350 01ac 0020     		movs	r0, #0
 1351 01ae FFF7FEFF 		bl	A4_Write
 1352              	.LVL311:
 417:drive.c       ****         B3_Write(0);
 1353              		.loc 1 417 0 discriminator 3
 1354 01b2 0020     		movs	r0, #0
 1355 01b4 FFF7FEFF 		bl	B3_Write
 1356              	.LVL312:
 418:drive.c       ****         B4_Write(1);
 1357              		.loc 1 418 0 discriminator 3
 1358 01b8 0120     		movs	r0, #1
 1359 01ba FFF7FEFF 		bl	B4_Write
 1360              	.LVL313:
 419:drive.c       ****         CyDelayUs(hastighed);
 1361              		.loc 1 419 0 discriminator 3
 1362 01be 40F2DC50 		movw	r0, #1500
 1363 01c2 FFF7FEFF 		bl	CyDelayUs
 1364              	.LVL314:
 1365              	.LBE5:
 331:drive.c       ****     {
 1366              		.loc 1 331 0 discriminator 3
 1367 01c6 0134     		adds	r4, r4, #1
 1368              	.LVL315:
 1369              	.L14:
 331:drive.c       ****     {
 1370              		.loc 1 331 0 is_stmt 0 discriminator 1
 1371 01c8 B4F55C7F 		cmp	r4, #880
 1372 01cc FFF61BAF 		blt	.L15
 420:drive.c       ****         
 421:drive.c       ****     }
 422:drive.c       ****  }...
 1373              		.loc 1 422 0 is_stmt 1
 1374 01d0 10BD     		pop	{r4, pc}
 1375              		.cfi_endproc
 1376              	.LFE3:
 1377              		.size	turnRight, .-turnRight
 1378 01d2 00BF     		.text
 1379              	.Letext0: