ARM GAS  C:\Users\andre\AppData\Local\Temp\ccMCWH51.s 			page 1


   1              		.syntax unified
   2              		.cpu cortex-m3
   3              		.fpu softvfp
   4              		.eabi_attribute 20, 1
   5              		.eabi_attribute 21, 1
   6              		.eabi_attribute 23, 3
   7              		.eabi_attribute 24, 1
   8              		.eabi_attribute 25, 1
   9              		.eabi_attribute 26, 1
  10              		.eabi_attribute 30, 1
  11              		.eabi_attribute 34, 1
  12              		.eabi_attribute 18, 4
  13              		.thumb
  14              		.syntax unified
  15              		.file	"drive.c"
  16              		.text
  17              	.Ltext0:
  18              		.cfi_sections	.debug_frame
  19              		.section	.text.runForward,"ax",%progbits
  20              		.align	2
  21              		.global	runForward
  22              		.thumb
  23              		.thumb_func
  24              		.type	runForward, %function
  25              	runForward:
  26              	.LFB0:
  27              		.file 1 "drive.c"
   1:drive.c       **** /* ========================================
   2:drive.c       ****  *
   3:drive.c       ****  * Copyright YOUR COMPANY, THE YEAR
   4:drive.c       ****  * All Rights Reserved
   5:drive.c       ****  * UNPUBLISHED, LICENSED SOFTWARE.
   6:drive.c       ****  *
   7:drive.c       ****  * CONFIDENTIAL AND PROPRIETARY INFORMATION
   8:drive.c       ****  * WHICH IS THE PROPERTY OF your company.
   9:drive.c       ****  *
  10:drive.c       ****  * ========================================
  11:drive.c       **** */
  12:drive.c       **** #define fart 1900
  13:drive.c       **** 
  14:drive.c       **** void runForward()
  15:drive.c       **** {
  28              		.loc 1 15 0
  29              		.cfi_startproc
  30              		@ args = 0, pretend = 0, frame = 0
  31              		@ frame_needed = 0, uses_anonymous_args = 0
  32 0000 10B5     		push	{r4, lr}
  33              		.cfi_def_cfa_offset 8
  34              		.cfi_offset 4, -8
  35              		.cfi_offset 14, -4
  36              	.LVL0:
  16:drive.c       ****   int x;
  17:drive.c       ****     
  18:drive.c       ****     for(x = 0; x < 680; x = x + 1)
  37              		.loc 1 18 0
  38 0002 0024     		movs	r4, #0
  39 0004 10E0     		b	.L2
ARM GAS  C:\Users\andre\AppData\Local\Temp\ccMCWH51.s 			page 2


  40              	.LVL1:
  41              	.L3:
  42              	.LBB2:
  19:drive.c       ****     {
  20:drive.c       ****         resetLeft();
  43              		.loc 1 20 0 discriminator 3
  44 0006 FFF7FEFF 		bl	resetLeft
  45              	.LVL2:
  21:drive.c       ****         resetRight();
  46              		.loc 1 21 0 discriminator 3
  47 000a FFF7FEFF 		bl	resetRight
  48              	.LVL3:
  22:drive.c       ****         stepperLeft(2, 1, fart);
  49              		.loc 1 22 0 discriminator 3
  50 000e 40F26C72 		movw	r2, #1900
  51 0012 0121     		movs	r1, #1
  52 0014 0220     		movs	r0, #2
  53 0016 FFF7FEFF 		bl	stepperLeft
  54              	.LVL4:
  23:drive.c       ****         stepperRight(2, 1, fart);
  55              		.loc 1 23 0 discriminator 3
  56 001a 40F26C72 		movw	r2, #1900
  57 001e 0121     		movs	r1, #1
  58 0020 0220     		movs	r0, #2
  59 0022 FFF7FEFF 		bl	stepperRight
  60              	.LVL5:
  61              	.LBE2:
  18:drive.c       ****     {
  62              		.loc 1 18 0 discriminator 3
  63 0026 0134     		adds	r4, r4, #1
  64              	.LVL6:
  65              	.L2:
  18:drive.c       ****     {
  66              		.loc 1 18 0 is_stmt 0 discriminator 1
  67 0028 B4F52A7F 		cmp	r4, #680
  68 002c EBDB     		blt	.L3
  24:drive.c       ****     }
  25:drive.c       ****  }
  69              		.loc 1 25 0 is_stmt 1
  70 002e 10BD     		pop	{r4, pc}
  71              		.cfi_endproc
  72              	.LFE0:
  73              		.size	runForward, .-runForward
  74              		.section	.text.runBackward,"ax",%progbits
  75              		.align	2
  76              		.global	runBackward
  77              		.thumb
  78              		.thumb_func
  79              		.type	runBackward, %function
  80              	runBackward:
  81              	.LFB1:
  26:drive.c       **** /* [] END OF FILE */
  27:drive.c       **** 
  28:drive.c       **** 
  29:drive.c       **** void runBackward()
  30:drive.c       **** {
  82              		.loc 1 30 0
ARM GAS  C:\Users\andre\AppData\Local\Temp\ccMCWH51.s 			page 3


  83              		.cfi_startproc
  84              		@ args = 0, pretend = 0, frame = 0
  85              		@ frame_needed = 0, uses_anonymous_args = 0
  86 0000 10B5     		push	{r4, lr}
  87              		.cfi_def_cfa_offset 8
  88              		.cfi_offset 4, -8
  89              		.cfi_offset 14, -4
  90              	.LVL7:
  31:drive.c       ****   int x;
  32:drive.c       ****     
  33:drive.c       ****     for(x = 0; x < 680; x = x + 1)
  91              		.loc 1 33 0
  92 0002 0024     		movs	r4, #0
  93 0004 10E0     		b	.L6
  94              	.LVL8:
  95              	.L7:
  96              	.LBB3:
  34:drive.c       ****     {
  35:drive.c       ****         resetLeft();
  97              		.loc 1 35 0 discriminator 3
  98 0006 FFF7FEFF 		bl	resetLeft
  99              	.LVL9:
  36:drive.c       ****         resetRight();
 100              		.loc 1 36 0 discriminator 3
 101 000a FFF7FEFF 		bl	resetRight
 102              	.LVL10:
  37:drive.c       ****         stepperLeft(2, 2, fart);
 103              		.loc 1 37 0 discriminator 3
 104 000e 40F26C72 		movw	r2, #1900
 105 0012 0221     		movs	r1, #2
 106 0014 0846     		mov	r0, r1
 107 0016 FFF7FEFF 		bl	stepperLeft
 108              	.LVL11:
  38:drive.c       ****         stepperRight(2, 2, fart);
 109              		.loc 1 38 0 discriminator 3
 110 001a 40F26C72 		movw	r2, #1900
 111 001e 0221     		movs	r1, #2
 112 0020 0846     		mov	r0, r1
 113 0022 FFF7FEFF 		bl	stepperRight
 114              	.LVL12:
 115              	.LBE3:
  33:drive.c       ****     {
 116              		.loc 1 33 0 discriminator 3
 117 0026 0134     		adds	r4, r4, #1
 118              	.LVL13:
 119              	.L6:
  33:drive.c       ****     {
 120              		.loc 1 33 0 is_stmt 0 discriminator 1
 121 0028 B4F52A7F 		cmp	r4, #680
 122 002c EBDB     		blt	.L7
  39:drive.c       ****     }
  40:drive.c       ****  }
 123              		.loc 1 40 0 is_stmt 1
 124 002e 10BD     		pop	{r4, pc}
 125              		.cfi_endproc
 126              	.LFE1:
 127              		.size	runBackward, .-runBackward
ARM GAS  C:\Users\andre\AppData\Local\Temp\ccMCWH51.s 			page 4


 128              		.section	.text.turnLeft,"ax",%progbits
 129              		.align	2
 130              		.global	turnLeft
 131              		.thumb
 132              		.thumb_func
 133              		.type	turnLeft, %function
 134              	turnLeft:
 135              	.LFB2:
  41:drive.c       **** 
  42:drive.c       **** void turnLeft()
  43:drive.c       **** {
 136              		.loc 1 43 0
 137              		.cfi_startproc
 138              		@ args = 0, pretend = 0, frame = 0
 139              		@ frame_needed = 0, uses_anonymous_args = 0
 140 0000 10B5     		push	{r4, lr}
 141              		.cfi_def_cfa_offset 8
 142              		.cfi_offset 4, -8
 143              		.cfi_offset 14, -4
 144              	.LVL14:
  44:drive.c       ****   int x;
  45:drive.c       ****     
  46:drive.c       ****     for(x = 0; x < 824; x = x + 1)
 145              		.loc 1 46 0
 146 0002 0024     		movs	r4, #0
 147 0004 10E0     		b	.L10
 148              	.LVL15:
 149              	.L11:
 150              	.LBB4:
  47:drive.c       ****     {
  48:drive.c       ****         resetLeft();
 151              		.loc 1 48 0 discriminator 3
 152 0006 FFF7FEFF 		bl	resetLeft
 153              	.LVL16:
  49:drive.c       ****         resetRight();
 154              		.loc 1 49 0 discriminator 3
 155 000a FFF7FEFF 		bl	resetRight
 156              	.LVL17:
  50:drive.c       ****         stepperLeft(2, 1, fart);
 157              		.loc 1 50 0 discriminator 3
 158 000e 40F26C72 		movw	r2, #1900
 159 0012 0121     		movs	r1, #1
 160 0014 0220     		movs	r0, #2
 161 0016 FFF7FEFF 		bl	stepperLeft
 162              	.LVL18:
  51:drive.c       ****         stepperRight(2, 2, fart);
 163              		.loc 1 51 0 discriminator 3
 164 001a 40F26C72 		movw	r2, #1900
 165 001e 0221     		movs	r1, #2
 166 0020 0846     		mov	r0, r1
 167 0022 FFF7FEFF 		bl	stepperRight
 168              	.LVL19:
 169              	.LBE4:
  46:drive.c       ****     {
 170              		.loc 1 46 0 discriminator 3
 171 0026 0134     		adds	r4, r4, #1
 172              	.LVL20:
ARM GAS  C:\Users\andre\AppData\Local\Temp\ccMCWH51.s 			page 5


 173              	.L10:
  46:drive.c       ****     {
 174              		.loc 1 46 0 is_stmt 0 discriminator 1
 175 0028 B4F54E7F 		cmp	r4, #824
 176 002c EBDB     		blt	.L11
  52:drive.c       ****     }
  53:drive.c       ****  }
 177              		.loc 1 53 0 is_stmt 1
 178 002e 10BD     		pop	{r4, pc}
 179              		.cfi_endproc
 180              	.LFE2:
 181              		.size	turnLeft, .-turnLeft
 182              		.section	.text.turnRight,"ax",%progbits
 183              		.align	2
 184              		.global	turnRight
 185              		.thumb
 186              		.thumb_func
 187              		.type	turnRight, %function
 188              	turnRight:
 189              	.LFB3:
  54:drive.c       **** 
  55:drive.c       **** 
  56:drive.c       **** void turnRight()
  57:drive.c       **** {
 190              		.loc 1 57 0
 191              		.cfi_startproc
 192              		@ args = 0, pretend = 0, frame = 0
 193              		@ frame_needed = 0, uses_anonymous_args = 0
 194 0000 10B5     		push	{r4, lr}
 195              		.cfi_def_cfa_offset 8
 196              		.cfi_offset 4, -8
 197              		.cfi_offset 14, -4
 198              	.LVL21:
  58:drive.c       ****   int x;
  59:drive.c       ****     
  60:drive.c       ****     for(x = 0; x < 880; x = x + 1)
 199              		.loc 1 60 0
 200 0002 0024     		movs	r4, #0
 201 0004 10E0     		b	.L14
 202              	.LVL22:
 203              	.L15:
 204              	.LBB5:
  61:drive.c       ****     {
  62:drive.c       ****         resetLeft();
 205              		.loc 1 62 0 discriminator 3
 206 0006 FFF7FEFF 		bl	resetLeft
 207              	.LVL23:
  63:drive.c       ****         resetRight();
 208              		.loc 1 63 0 discriminator 3
 209 000a FFF7FEFF 		bl	resetRight
 210              	.LVL24:
  64:drive.c       ****         stepperLeft(2, 2, fart);
 211              		.loc 1 64 0 discriminator 3
 212 000e 40F26C72 		movw	r2, #1900
 213 0012 0221     		movs	r1, #2
 214 0014 0846     		mov	r0, r1
 215 0016 FFF7FEFF 		bl	stepperLeft
ARM GAS  C:\Users\andre\AppData\Local\Temp\ccMCWH51.s 			page 6


 216              	.LVL25:
  65:drive.c       ****         stepperRight(2, 1, fart);
 217              		.loc 1 65 0 discriminator 3
 218 001a 40F26C72 		movw	r2, #1900
 219 001e 0121     		movs	r1, #1
 220 0020 0220     		movs	r0, #2
 221 0022 FFF7FEFF 		bl	stepperRight
 222              	.LVL26:
 223              	.LBE5:
  60:drive.c       ****     {
 224              		.loc 1 60 0 discriminator 3
 225 0026 0134     		adds	r4, r4, #1
 226              	.LVL27:
 227              	.L14:
  60:drive.c       ****     {
 228              		.loc 1 60 0 is_stmt 0 discriminator 1
 229 0028 B4F55C7F 		cmp	r4, #880
 230 002c EBDB     		blt	.L15
  66:drive.c       ****     }
  67:drive.c       ****  }...
 231              		.loc 1 67 0 is_stmt 1
 232 002e 10BD     		pop	{r4, pc}
 233              		.cfi_endproc
 234              	.LFE3:
 235              		.size	turnRight, .-turnRight
 236              		.text
 237              	.Letext0: