ARM GAS  C:\Users\andre\AppData\Local\Temp\ccMpuBIa.s 			page 1


   1              		.syntax unified
   2              		.cpu cortex-m3
   3              		.fpu softvfp
   4              		.eabi_attribute 20, 1
   5              		.eabi_attribute 21, 1
   6              		.eabi_attribute 23, 3
   7              		.eabi_attribute 24, 1
   8              		.eabi_attribute 25, 1
   9              		.eabi_attribute 26, 1
  10              		.eabi_attribute 30, 1
  11              		.eabi_attribute 34, 1
  12              		.eabi_attribute 18, 4
  13              		.thumb
  14              		.syntax unified
  15              		.file	"main.c"
  16              		.text
  17              	.Ltext0:
  18              		.cfi_sections	.debug_frame
  19              		.section	.text.UART_1_Rx_Handler,"ax",%progbits
  20              		.align	2
  21              		.global	UART_1_Rx_Handler
  22              		.thumb
  23              		.thumb_func
  24              		.type	UART_1_Rx_Handler, %function
  25              	UART_1_Rx_Handler:
  26              	.LFB64:
  27              		.file 1 "main.c"
   1:main.c        **** /* ========================================
   2:main.c        ****  *
   3:main.c        ****  *  Stepper.h
   4:main.c        ****  *
   5:main.c        ****  *  Created: 13-09-2017 22:42:53
   6:main.c        ****  *  Author: Andreas Hervert Nielsen
   7:main.c        ****  * 
   8:main.c        ****  * ========================================
   9:main.c        ****  */
  10:main.c        **** 
  11:main.c        **** #include "project.h"
  12:main.c        **** #include <stdio.h>
  13:main.c        **** #include <CyLib.h>
  14:main.c        **** 
  15:main.c        **** int status = 0;
  16:main.c        **** unsigned long hastighed = 0;
  17:main.c        **** int stepMode = 1;
  18:main.c        **** char ledStatus = 0;
  19:main.c        **** int step = 0;
  20:main.c        **** 
  21:main.c        **** 
  22:main.c        **** 
  23:main.c        **** CY_ISR(UART_1_Rx_Handler)
  24:main.c        **** {
  28              		.loc 1 24 0
  29              		.cfi_startproc
  30              		@ args = 0, pretend = 0, frame = 0
  31              		@ frame_needed = 0, uses_anonymous_args = 0
  32 0000 10B5     		push	{r4, lr}
  33              		.cfi_def_cfa_offset 8
ARM GAS  C:\Users\andre\AppData\Local\Temp\ccMpuBIa.s 			page 2


  34              		.cfi_offset 4, -8
  35              		.cfi_offset 14, -4
  25:main.c        ****     uint8_t received = UART_1_ReadRxData();
  36              		.loc 1 25 0
  37 0002 FFF7FEFF 		bl	UART_1_ReadRxData
  38              	.LVL0:
  39 0006 0446     		mov	r4, r0
  40              	.LVL1:
  26:main.c        ****     UART_1_WriteTxData(received);
  41              		.loc 1 26 0
  42 0008 FFF7FEFF 		bl	UART_1_WriteTxData
  43              	.LVL2:
  27:main.c        ****     
  28:main.c        ****         
  29:main.c        ****     if (received == 'a')
  44              		.loc 1 29 0
  45 000c 612C     		cmp	r4, #97
  46 000e 08D1     		bne	.L2
  30:main.c        ****     {
  31:main.c        ****         UART_1_PutString("\nMotor Fremad \r \n");
  47              		.loc 1 31 0
  48 0010 5548     		ldr	r0, .L21
  49 0012 FFF7FEFF 		bl	UART_1_PutString
  50              	.LVL3:
  32:main.c        ****         status = 1;
  51              		.loc 1 32 0
  52 0016 0120     		movs	r0, #1
  53 0018 544B     		ldr	r3, .L21+4
  54 001a 1860     		str	r0, [r3]
  33:main.c        ****         LED_Write(1);
  55              		.loc 1 33 0
  56 001c FFF7FEFF 		bl	LED_Write
  57              	.LVL4:
  58 0020 10BD     		pop	{r4, pc}
  59              	.LVL5:
  60              	.L2:
  34:main.c        ****     }
  35:main.c        ****     else if (received == 'd')
  61              		.loc 1 35 0
  62 0022 642C     		cmp	r4, #100
  63 0024 09D1     		bne	.L4
  36:main.c        ****     {
  37:main.c        ****         UART_1_PutString("\nMotor Tilbage \r \n");
  64              		.loc 1 37 0
  65 0026 5248     		ldr	r0, .L21+8
  66 0028 FFF7FEFF 		bl	UART_1_PutString
  67              	.LVL6:
  38:main.c        ****         status = 2;
  68              		.loc 1 38 0
  69 002c 0222     		movs	r2, #2
  70 002e 4F4B     		ldr	r3, .L21+4
  71 0030 1A60     		str	r2, [r3]
  39:main.c        ****         LED_Write(1);
  72              		.loc 1 39 0
  73 0032 0120     		movs	r0, #1
  74 0034 FFF7FEFF 		bl	LED_Write
  75              	.LVL7:
ARM GAS  C:\Users\andre\AppData\Local\Temp\ccMpuBIa.s 			page 3


  76 0038 10BD     		pop	{r4, pc}
  77              	.LVL8:
  78              	.L4:
  40:main.c        ****     }
  41:main.c        ****     else if (received == 's')
  79              		.loc 1 41 0
  80 003a 732C     		cmp	r4, #115
  81 003c 08D1     		bne	.L5
  42:main.c        ****     {
  43:main.c        ****         UART_1_PutString("\nMotor Stoppet \r \n");
  82              		.loc 1 43 0
  83 003e 4D48     		ldr	r0, .L21+12
  84 0040 FFF7FEFF 		bl	UART_1_PutString
  85              	.LVL9:
  44:main.c        ****         status = 0;
  86              		.loc 1 44 0
  87 0044 0020     		movs	r0, #0
  88 0046 494B     		ldr	r3, .L21+4
  89 0048 1860     		str	r0, [r3]
  45:main.c        ****         LED_Write(0);
  90              		.loc 1 45 0
  91 004a FFF7FEFF 		bl	LED_Write
  92              	.LVL10:
  93 004e 10BD     		pop	{r4, pc}
  94              	.LVL11:
  95              	.L5:
  46:main.c        ****     }
  47:main.c        ****     else if (received == 'q')
  96              		.loc 1 47 0
  97 0050 712C     		cmp	r4, #113
  98 0052 06D1     		bne	.L6
  48:main.c        ****     {
  49:main.c        ****         UART_1_PutString("\nMotor mode: Half mode \r \n");
  99              		.loc 1 49 0
 100 0054 4848     		ldr	r0, .L21+16
 101 0056 FFF7FEFF 		bl	UART_1_PutString
 102              	.LVL12:
  50:main.c        ****         stepMode = 2;
 103              		.loc 1 50 0
 104 005a 0222     		movs	r2, #2
 105 005c 474B     		ldr	r3, .L21+20
 106 005e 1A60     		str	r2, [r3]
 107 0060 10BD     		pop	{r4, pc}
 108              	.LVL13:
 109              	.L6:
  51:main.c        ****     }
  52:main.c        ****     else if (received == 'e')
 110              		.loc 1 52 0
 111 0062 652C     		cmp	r4, #101
 112 0064 06D1     		bne	.L7
  53:main.c        ****     {
  54:main.c        ****         UART_1_PutString("\nMotor mode: Full mode \r \n");
 113              		.loc 1 54 0
 114 0066 4648     		ldr	r0, .L21+24
 115 0068 FFF7FEFF 		bl	UART_1_PutString
 116              	.LVL14:
  55:main.c        ****         stepMode = 1;
ARM GAS  C:\Users\andre\AppData\Local\Temp\ccMpuBIa.s 			page 4


 117              		.loc 1 55 0
 118 006c 0122     		movs	r2, #1
 119 006e 434B     		ldr	r3, .L21+20
 120 0070 1A60     		str	r2, [r3]
 121 0072 10BD     		pop	{r4, pc}
 122              	.LVL15:
 123              	.L7:
  56:main.c        ****     }
  57:main.c        ****     else if (received == 'w')
 124              		.loc 1 57 0
 125 0074 772C     		cmp	r4, #119
 126 0076 06D1     		bne	.L8
  58:main.c        ****     {
  59:main.c        ****         UART_1_PutString("\nMotor mode: wave mode \r \n");
 127              		.loc 1 59 0
 128 0078 4248     		ldr	r0, .L21+28
 129 007a FFF7FEFF 		bl	UART_1_PutString
 130              	.LVL16:
  60:main.c        ****         stepMode = 3;
 131              		.loc 1 60 0
 132 007e 0322     		movs	r2, #3
 133 0080 3E4B     		ldr	r3, .L21+20
 134 0082 1A60     		str	r2, [r3]
 135 0084 10BD     		pop	{r4, pc}
 136              	.LVL17:
 137              	.L8:
  61:main.c        ****     }
  62:main.c        ****     else if (received == 'z')
 138              		.loc 1 62 0
 139 0086 7A2C     		cmp	r4, #122
 140 0088 06D1     		bne	.L9
  63:main.c        ****     {
  64:main.c        ****         UART_1_PutString("\nTager en enkelt omgang, ved naeste start. \r \n");
 141              		.loc 1 64 0
 142 008a 3F48     		ldr	r0, .L21+32
 143 008c FFF7FEFF 		bl	UART_1_PutString
 144              	.LVL18:
  65:main.c        ****         step = 1;
 145              		.loc 1 65 0
 146 0090 0122     		movs	r2, #1
 147 0092 364B     		ldr	r3, .L21+4
 148 0094 5A60     		str	r2, [r3, #4]
 149 0096 10BD     		pop	{r4, pc}
 150              	.LVL19:
 151              	.L9:
  66:main.c        ****     }
  67:main.c        ****     else if (received == '1')
 152              		.loc 1 67 0
 153 0098 312C     		cmp	r4, #49
 154 009a 06D1     		bne	.L10
  68:main.c        ****     {
  69:main.c        ****         UART_1_PutString("\nMotor hastighed: Bro der teanker \r \n");
 155              		.loc 1 69 0
 156 009c 3B48     		ldr	r0, .L21+36
 157 009e FFF7FEFF 		bl	UART_1_PutString
 158              	.LVL20:
  70:main.c        ****         hastighed = 18;
ARM GAS  C:\Users\andre\AppData\Local\Temp\ccMpuBIa.s 			page 5


 159              		.loc 1 70 0
 160 00a2 1222     		movs	r2, #18
 161 00a4 314B     		ldr	r3, .L21+4
 162 00a6 9A60     		str	r2, [r3, #8]
 163 00a8 10BD     		pop	{r4, pc}
 164              	.LVL21:
 165              	.L10:
  71:main.c        ****     }
  72:main.c        ****     else if (received == '2')
 166              		.loc 1 72 0
 167 00aa 322C     		cmp	r4, #50
 168 00ac 06D1     		bne	.L11
  73:main.c        ****     {
  74:main.c        ****         UART_1_PutString("\nMotor hastighed: Slepping Snorlaks \r \n");
 169              		.loc 1 74 0
 170 00ae 3848     		ldr	r0, .L21+40
 171 00b0 FFF7FEFF 		bl	UART_1_PutString
 172              	.LVL22:
  75:main.c        ****         hastighed = 16;
 173              		.loc 1 75 0
 174 00b4 1022     		movs	r2, #16
 175 00b6 2D4B     		ldr	r3, .L21+4
 176 00b8 9A60     		str	r2, [r3, #8]
 177 00ba 10BD     		pop	{r4, pc}
 178              	.LVL23:
 179              	.L11:
  76:main.c        ****     }
  77:main.c        ****     else if (received == '3')
 180              		.loc 1 77 0
 181 00bc 332C     		cmp	r4, #51
 182 00be 06D1     		bne	.L12
  78:main.c        ****     {
  79:main.c        ****         UART_1_PutString("\nMotor hastighed: Andreas om morgen \r \n");
 183              		.loc 1 79 0
 184 00c0 3448     		ldr	r0, .L21+44
 185 00c2 FFF7FEFF 		bl	UART_1_PutString
 186              	.LVL24:
  80:main.c        ****         hastighed = 14;
 187              		.loc 1 80 0
 188 00c6 0E22     		movs	r2, #14
 189 00c8 284B     		ldr	r3, .L21+4
 190 00ca 9A60     		str	r2, [r3, #8]
 191 00cc 10BD     		pop	{r4, pc}
 192              	.LVL25:
 193              	.L12:
  81:main.c        ****     }
  82:main.c        ****     else if (received == '4')
 194              		.loc 1 82 0
 195 00ce 342C     		cmp	r4, #52
 196 00d0 06D1     		bne	.L13
  83:main.c        ****     {
  84:main.c        ****         UART_1_PutString("\nMotor hastighed: Vores forleaser undervisning \r \n");
 197              		.loc 1 84 0
 198 00d2 3148     		ldr	r0, .L21+48
 199 00d4 FFF7FEFF 		bl	UART_1_PutString
 200              	.LVL26:
  85:main.c        ****         hastighed = 12;
ARM GAS  C:\Users\andre\AppData\Local\Temp\ccMpuBIa.s 			page 6


 201              		.loc 1 85 0
 202 00d8 0C22     		movs	r2, #12
 203 00da 244B     		ldr	r3, .L21+4
 204 00dc 9A60     		str	r2, [r3, #8]
 205 00de 10BD     		pop	{r4, pc}
 206              	.LVL27:
 207              	.L13:
  86:main.c        ****     }
  87:main.c        ****     else if (received == '5')
 208              		.loc 1 87 0
 209 00e0 352C     		cmp	r4, #53
 210 00e2 06D1     		bne	.L14
  88:main.c        ****     {
  89:main.c        ****         UART_1_PutString("\nMotor hastighed: Normal \r \n");
 211              		.loc 1 89 0
 212 00e4 2D48     		ldr	r0, .L21+52
 213 00e6 FFF7FEFF 		bl	UART_1_PutString
 214              	.LVL28:
  90:main.c        ****         hastighed = 10;
 215              		.loc 1 90 0
 216 00ea 0A22     		movs	r2, #10
 217 00ec 1F4B     		ldr	r3, .L21+4
 218 00ee 9A60     		str	r2, [r3, #8]
 219 00f0 10BD     		pop	{r4, pc}
 220              	.LVL29:
 221              	.L14:
  91:main.c        ****     }
  92:main.c        ****     else if (received == '6')
 222              		.loc 1 92 0
 223 00f2 362C     		cmp	r4, #54
 224 00f4 06D1     		bne	.L15
  93:main.c        ****     {
  94:main.c        ****         UART_1_PutString("\nMotor hastighed: LOL \r \n");
 225              		.loc 1 94 0
 226 00f6 2A48     		ldr	r0, .L21+56
 227 00f8 FFF7FEFF 		bl	UART_1_PutString
 228              	.LVL30:
  95:main.c        ****         hastighed = 8;
 229              		.loc 1 95 0
 230 00fc 0822     		movs	r2, #8
 231 00fe 1B4B     		ldr	r3, .L21+4
 232 0100 9A60     		str	r2, [r3, #8]
 233 0102 10BD     		pop	{r4, pc}
 234              	.LVL31:
 235              	.L15:
  96:main.c        ****     }
  97:main.c        ****     else if (received == '7')
 236              		.loc 1 97 0
 237 0104 372C     		cmp	r4, #55
 238 0106 06D1     		bne	.L16
  98:main.c        ****     {
  99:main.c        ****         UART_1_PutString("\nMotor hastighed: CAPTAIN ROEDVIN \r \n");
 239              		.loc 1 99 0
 240 0108 2648     		ldr	r0, .L21+60
 241 010a FFF7FEFF 		bl	UART_1_PutString
 242              	.LVL32:
 100:main.c        ****         hastighed = 6;
ARM GAS  C:\Users\andre\AppData\Local\Temp\ccMpuBIa.s 			page 7


 243              		.loc 1 100 0
 244 010e 0622     		movs	r2, #6
 245 0110 164B     		ldr	r3, .L21+4
 246 0112 9A60     		str	r2, [r3, #8]
 247 0114 10BD     		pop	{r4, pc}
 248              	.LVL33:
 249              	.L16:
 101:main.c        ****     }
 102:main.c        ****     else if (received == '8')
 250              		.loc 1 102 0
 251 0116 382C     		cmp	r4, #56
 252 0118 06D1     		bne	.L17
 103:main.c        ****     {
 104:main.c        ****         UART_1_PutString("\nMotor hastighed: Kasper paa speed \r \n");
 253              		.loc 1 104 0
 254 011a 2348     		ldr	r0, .L21+64
 255 011c FFF7FEFF 		bl	UART_1_PutString
 256              	.LVL34:
 105:main.c        ****         hastighed = 4;
 257              		.loc 1 105 0
 258 0120 0422     		movs	r2, #4
 259 0122 124B     		ldr	r3, .L21+4
 260 0124 9A60     		str	r2, [r3, #8]
 261 0126 10BD     		pop	{r4, pc}
 262              	.LVL35:
 263              	.L17:
 106:main.c        ****     }
 107:main.c        ****     else if (received == '9')
 264              		.loc 1 107 0
 265 0128 392C     		cmp	r4, #57
 266 012a 06D1     		bne	.L18
 108:main.c        ****     {
 109:main.c        ****         UART_1_PutString("\nMotor hastighed: Full gadafi \r \n");
 267              		.loc 1 109 0
 268 012c 1F48     		ldr	r0, .L21+68
 269 012e FFF7FEFF 		bl	UART_1_PutString
 270              	.LVL36:
 110:main.c        ****         hastighed = 2;
 271              		.loc 1 110 0
 272 0132 0222     		movs	r2, #2
 273 0134 0D4B     		ldr	r3, .L21+4
 274 0136 9A60     		str	r2, [r3, #8]
 275 0138 10BD     		pop	{r4, pc}
 276              	.LVL37:
 277              	.L18:
 111:main.c        ****     }
 112:main.c        ****     else if (received == '0')
 278              		.loc 1 112 0
 279 013a 302C     		cmp	r4, #48
 280 013c 06D1     		bne	.L19
 113:main.c        ****     {
 114:main.c        ****         UART_1_PutString("\nMotor hastighed: Nicklas paa Tinder \r \n");
 281              		.loc 1 114 0
 282 013e 1C48     		ldr	r0, .L21+72
 283 0140 FFF7FEFF 		bl	UART_1_PutString
 284              	.LVL38:
 115:main.c        ****         hastighed = 1;
ARM GAS  C:\Users\andre\AppData\Local\Temp\ccMpuBIa.s 			page 8


 285              		.loc 1 115 0
 286 0144 0122     		movs	r2, #1
 287 0146 094B     		ldr	r3, .L21+4
 288 0148 9A60     		str	r2, [r3, #8]
 289 014a 10BD     		pop	{r4, pc}
 290              	.LVL39:
 291              	.L19:
 116:main.c        ****     }
 117:main.c        ****     else
 118:main.c        ****     {
 119:main.c        ****         UART_1_PutString("\n \n \nHELP1: Du kan brug 1 til 9 og 0 for hastigheder. \r \n"); 
 292              		.loc 1 119 0
 293 014c 1948     		ldr	r0, .L21+76
 294 014e FFF7FEFF 		bl	UART_1_PutString
 295              	.LVL40:
 120:main.c        ****         UART_1_PutString("HELP2: Q og E og W for half, full og wave mode. \r \n");
 296              		.loc 1 120 0
 297 0152 1948     		ldr	r0, .L21+80
 298 0154 FFF7FEFF 		bl	UART_1_PutString
 299              	.LVL41:
 121:main.c        ****         UART_1_PutString("HELP3: z for at tage en enkel omgang. \r \n");
 300              		.loc 1 121 0
 301 0158 1848     		ldr	r0, .L21+84
 302 015a FFF7FEFF 		bl	UART_1_PutString
 303              	.LVL42:
 122:main.c        ****         UART_1_PutString("HELP4: A og D er for fremad og bakgear. \r \n \n \n");
 304              		.loc 1 122 0
 305 015e 1848     		ldr	r0, .L21+88
 306 0160 FFF7FEFF 		bl	UART_1_PutString
 307              	.LVL43:
 308 0164 10BD     		pop	{r4, pc}
 309              	.LVL44:
 310              	.L22:
 311 0166 00BF     		.align	2
 312              	.L21:
 313 0168 00000000 		.word	.LC0
 314 016c 00000000 		.word	.LANCHOR0
 315 0170 14000000 		.word	.LC1
 316 0174 28000000 		.word	.LC2
 317 0178 3C000000 		.word	.LC3
 318 017c 00000000 		.word	.LANCHOR1
 319 0180 58000000 		.word	.LC4
 320 0184 74000000 		.word	.LC5
 321 0188 90000000 		.word	.LC6
 322 018c C0000000 		.word	.LC7
 323 0190 E8000000 		.word	.LC8
 324 0194 10010000 		.word	.LC9
 325 0198 38010000 		.word	.LC10
 326 019c 6C010000 		.word	.LC11
 327 01a0 8C010000 		.word	.LC12
 328 01a4 A8010000 		.word	.LC13
 329 01a8 D0010000 		.word	.LC14
 330 01ac F8010000 		.word	.LC15
 331 01b0 1C020000 		.word	.LC16
 332 01b4 48020000 		.word	.LC17
 333 01b8 84020000 		.word	.LC18
 334 01bc B8020000 		.word	.LC19
ARM GAS  C:\Users\andre\AppData\Local\Temp\ccMpuBIa.s 			page 9


 335 01c0 E4020000 		.word	.LC20
 336              		.cfi_endproc
 337              	.LFE64:
 338              		.size	UART_1_Rx_Handler, .-UART_1_Rx_Handler
 339              		.section	.text.main,"ax",%progbits
 340              		.align	2
 341              		.global	main
 342              		.thumb
 343              		.thumb_func
 344              		.type	main, %function
 345              	main:
 346              	.LFB65:
 123:main.c        ****     }
 124:main.c        **** }    
 125:main.c        **** 
 126:main.c        **** 
 127:main.c        **** 
 128:main.c        **** int main(void)
 129:main.c        **** {
 347              		.loc 1 129 0
 348              		.cfi_startproc
 349              		@ Volatile: function does not return.
 350              		@ args = 0, pretend = 0, frame = 0
 351              		@ frame_needed = 0, uses_anonymous_args = 0
 352 0000 08B5     		push	{r3, lr}
 353              		.cfi_def_cfa_offset 8
 354              		.cfi_offset 3, -8
 355              		.cfi_offset 14, -4
 130:main.c        ****     CyGlobalIntEnable; /* Enable global interrupts. */
 356              		.loc 1 130 0
 357              		.syntax unified
 358              	@ 130 "main.c" 1
 359 0002 62B6     		CPSIE   i
 360              	@ 0 "" 2
 131:main.c        ****     
 132:main.c        ****     isr_UART_1_RX_StartEx(UART_1_Rx_Handler);
 361              		.loc 1 132 0
 362              		.thumb
 363              		.syntax unified
 364 0004 B648     		ldr	r0, .L49
 365 0006 FFF7FEFF 		bl	isr_UART_1_RX_StartEx
 366              	.LVL45:
 133:main.c        ****     UART_1_Start();
 367              		.loc 1 133 0
 368 000a FFF7FEFF 		bl	UART_1_Start
 369              	.LVL46:
 134:main.c        ****     UART_1_PutString("Application started\r\n");
 370              		.loc 1 134 0
 371 000e B548     		ldr	r0, .L49+4
 372 0010 FFF7FEFF 		bl	UART_1_PutString
 373              	.LVL47:
 135:main.c        ****     LED_Write(0);
 374              		.loc 1 135 0
 375 0014 0020     		movs	r0, #0
 376 0016 FFF7FEFF 		bl	LED_Write
 377              	.LVL48:
 378              	.L24:
ARM GAS  C:\Users\andre\AppData\Local\Temp\ccMpuBIa.s 			page 10


 136:main.c        ****     /* Place your initialization/startup code here (e.g. MyInst_Start()) */
 137:main.c        ****     
 138:main.c        ****     for(;;)
 139:main.c        ****     {
 140:main.c        ****         
 141:main.c        ****         //Reset mod kortslutning
 142:main.c        ****         A1_Write(0);
 379              		.loc 1 142 0
 380 001a 0020     		movs	r0, #0
 381 001c FFF7FEFF 		bl	A1_Write
 382              	.LVL49:
 143:main.c        ****         A2_Write(0);
 383              		.loc 1 143 0
 384 0020 0020     		movs	r0, #0
 385 0022 FFF7FEFF 		bl	A2_Write
 386              	.LVL50:
 144:main.c        ****         B1_Write(0);
 387              		.loc 1 144 0
 388 0026 0020     		movs	r0, #0
 389 0028 FFF7FEFF 		bl	B1_Write
 390              	.LVL51:
 145:main.c        ****         B2_Write(0);
 391              		.loc 1 145 0
 392 002c 0020     		movs	r0, #0
 393 002e FFF7FEFF 		bl	B2_Write
 394              	.LVL52:
 146:main.c        ****         
 147:main.c        ****              if(stepMode == 1) //Full mode
 395              		.loc 1 147 0
 396 0032 AD4B     		ldr	r3, .L49+8
 397 0034 1B68     		ldr	r3, [r3]
 398 0036 012B     		cmp	r3, #1
 399 0038 40F0B680 		bne	.L46
 400 003c 48E0     		b	.L27
 401              	.L28:
 148:main.c        ****             {
 149:main.c        ****                  while(status == 1)//Kører forlæns
 150:main.c        ****                     {
 151:main.c        ****                         //Step 1
 152:main.c        ****                         A1_Write(1);
 402              		.loc 1 152 0
 403 003e 0120     		movs	r0, #1
 404 0040 FFF7FEFF 		bl	A1_Write
 405              	.LVL53:
 153:main.c        ****                         A2_Write(0);
 406              		.loc 1 153 0
 407 0044 0020     		movs	r0, #0
 408 0046 FFF7FEFF 		bl	A2_Write
 409              	.LVL54:
 154:main.c        ****                         B1_Write(0);
 410              		.loc 1 154 0
 411 004a 0020     		movs	r0, #0
 412 004c FFF7FEFF 		bl	B1_Write
 413              	.LVL55:
 155:main.c        ****                         B2_Write(1);
 414              		.loc 1 155 0
 415 0050 0120     		movs	r0, #1
ARM GAS  C:\Users\andre\AppData\Local\Temp\ccMpuBIa.s 			page 11


 416 0052 FFF7FEFF 		bl	B2_Write
 417              	.LVL56:
 156:main.c        ****                         CyDelay(hastighed);
 418              		.loc 1 156 0
 419 0056 A54C     		ldr	r4, .L49+12
 420 0058 A068     		ldr	r0, [r4, #8]
 421 005a FFF7FEFF 		bl	CyDelay
 422              	.LVL57:
 157:main.c        ****                         
 158:main.c        ****                         //Step 2
 159:main.c        ****                         A1_Write(1);
 423              		.loc 1 159 0
 424 005e 0120     		movs	r0, #1
 425 0060 FFF7FEFF 		bl	A1_Write
 426              	.LVL58:
 160:main.c        ****                         A2_Write(1);
 427              		.loc 1 160 0
 428 0064 0120     		movs	r0, #1
 429 0066 FFF7FEFF 		bl	A2_Write
 430              	.LVL59:
 161:main.c        ****                         B1_Write(0);
 431              		.loc 1 161 0
 432 006a 0020     		movs	r0, #0
 433 006c FFF7FEFF 		bl	B1_Write
 434              	.LVL60:
 162:main.c        ****                         B2_Write(0);
 435              		.loc 1 162 0
 436 0070 0020     		movs	r0, #0
 437 0072 FFF7FEFF 		bl	B2_Write
 438              	.LVL61:
 163:main.c        ****                         CyDelay(hastighed);
 439              		.loc 1 163 0
 440 0076 A068     		ldr	r0, [r4, #8]
 441 0078 FFF7FEFF 		bl	CyDelay
 442              	.LVL62:
 164:main.c        ****                                                            
 165:main.c        ****                         //Step 3
 166:main.c        ****                         A1_Write(0);
 443              		.loc 1 166 0
 444 007c 0020     		movs	r0, #0
 445 007e FFF7FEFF 		bl	A1_Write
 446              	.LVL63:
 167:main.c        ****                         A2_Write(1);
 447              		.loc 1 167 0
 448 0082 0120     		movs	r0, #1
 449 0084 FFF7FEFF 		bl	A2_Write
 450              	.LVL64:
 168:main.c        ****                         B1_Write(1);
 451              		.loc 1 168 0
 452 0088 0120     		movs	r0, #1
 453 008a FFF7FEFF 		bl	B1_Write
 454              	.LVL65:
 169:main.c        ****                         B2_Write(0);
 455              		.loc 1 169 0
 456 008e 0020     		movs	r0, #0
 457 0090 FFF7FEFF 		bl	B2_Write
 458              	.LVL66:
ARM GAS  C:\Users\andre\AppData\Local\Temp\ccMpuBIa.s 			page 12


 170:main.c        ****                         CyDelay(hastighed);
 459              		.loc 1 170 0
 460 0094 A068     		ldr	r0, [r4, #8]
 461 0096 FFF7FEFF 		bl	CyDelay
 462              	.LVL67:
 171:main.c        ****                                     
 172:main.c        ****                                                          
 173:main.c        ****                         //Step 4
 174:main.c        ****                         A1_Write(0);
 463              		.loc 1 174 0
 464 009a 0020     		movs	r0, #0
 465 009c FFF7FEFF 		bl	A1_Write
 466              	.LVL68:
 175:main.c        ****                         A2_Write(0);
 467              		.loc 1 175 0
 468 00a0 0020     		movs	r0, #0
 469 00a2 FFF7FEFF 		bl	A2_Write
 470              	.LVL69:
 176:main.c        ****                         B1_Write(1);
 471              		.loc 1 176 0
 472 00a6 0120     		movs	r0, #1
 473 00a8 FFF7FEFF 		bl	B1_Write
 474              	.LVL70:
 177:main.c        ****                         B2_Write(1);
 475              		.loc 1 177 0
 476 00ac 0120     		movs	r0, #1
 477 00ae FFF7FEFF 		bl	B2_Write
 478              	.LVL71:
 178:main.c        ****                         CyDelay(hastighed);
 479              		.loc 1 178 0
 480 00b2 A068     		ldr	r0, [r4, #8]
 481 00b4 FFF7FEFF 		bl	CyDelay
 482              	.LVL72:
 179:main.c        ****                         
 180:main.c        ****                         ledStatus = ! ledStatus;
 483              		.loc 1 180 0
 484 00b8 207B     		ldrb	r0, [r4, #12]	@ zero_extendqisi2
 485 00ba B0FA80F0 		clz	r0, r0
 486 00be 4009     		lsrs	r0, r0, #5
 487 00c0 2073     		strb	r0, [r4, #12]
 181:main.c        ****                         LED_Write(ledStatus);
 488              		.loc 1 181 0
 489 00c2 FFF7FEFF 		bl	LED_Write
 490              	.LVL73:
 182:main.c        ****                         
 183:main.c        ****                         if(step == 1)
 491              		.loc 1 183 0
 492 00c6 6368     		ldr	r3, [r4, #4]
 493 00c8 012B     		cmp	r3, #1
 494 00ca 01D1     		bne	.L27
 184:main.c        ****                         {
 185:main.c        ****                           status = 0;   
 495              		.loc 1 185 0
 496 00cc 0022     		movs	r2, #0
 497 00ce 2260     		str	r2, [r4]
 498              	.L27:
 149:main.c        ****                     {
ARM GAS  C:\Users\andre\AppData\Local\Temp\ccMpuBIa.s 			page 13


 499              		.loc 1 149 0
 500 00d0 864B     		ldr	r3, .L49+12
 501 00d2 1B68     		ldr	r3, [r3]
 502 00d4 012B     		cmp	r3, #1
 503 00d6 B2D0     		beq	.L28
 186:main.c        ****                         }
 187:main.c        ****                     }
 188:main.c        ****                     
 189:main.c        ****                     //Reset mod kortslutning
 190:main.c        ****                     A1_Write(0);
 504              		.loc 1 190 0
 505 00d8 0020     		movs	r0, #0
 506 00da FFF7FEFF 		bl	A1_Write
 507              	.LVL74:
 191:main.c        ****                     A2_Write(0);
 508              		.loc 1 191 0
 509 00de 0020     		movs	r0, #0
 510 00e0 FFF7FEFF 		bl	A2_Write
 511              	.LVL75:
 192:main.c        ****                     B1_Write(0);
 512              		.loc 1 192 0
 513 00e4 0020     		movs	r0, #0
 514 00e6 FFF7FEFF 		bl	B1_Write
 515              	.LVL76:
 193:main.c        ****                     B2_Write(0);
 516              		.loc 1 193 0
 517 00ea 0020     		movs	r0, #0
 518 00ec FFF7FEFF 		bl	B2_Write
 519              	.LVL77:
 194:main.c        ****                     
 195:main.c        ****                    while(status == 2) //Kører baglæns
 520              		.loc 1 195 0
 521 00f0 49E0     		b	.L30
 522              	.L31:
 196:main.c        ****                     {
 197:main.c        ****                         //Step 1
 198:main.c        ****                         A1_Write(0);
 523              		.loc 1 198 0
 524 00f2 0020     		movs	r0, #0
 525 00f4 FFF7FEFF 		bl	A1_Write
 526              	.LVL78:
 199:main.c        ****                         A2_Write(0);
 527              		.loc 1 199 0
 528 00f8 0020     		movs	r0, #0
 529 00fa FFF7FEFF 		bl	A2_Write
 530              	.LVL79:
 200:main.c        ****                         B1_Write(1);
 531              		.loc 1 200 0
 532 00fe 0120     		movs	r0, #1
 533 0100 FFF7FEFF 		bl	B1_Write
 534              	.LVL80:
 201:main.c        ****                         B2_Write(1);
 535              		.loc 1 201 0
 536 0104 0120     		movs	r0, #1
 537 0106 FFF7FEFF 		bl	B2_Write
 538              	.LVL81:
 202:main.c        ****                         CyDelay(hastighed);
ARM GAS  C:\Users\andre\AppData\Local\Temp\ccMpuBIa.s 			page 14


 539              		.loc 1 202 0
 540 010a 784C     		ldr	r4, .L49+12
 541 010c A068     		ldr	r0, [r4, #8]
 542 010e FFF7FEFF 		bl	CyDelay
 543              	.LVL82:
 203:main.c        ****                         
 204:main.c        ****                         //Step 2
 205:main.c        ****                         A1_Write(0);
 544              		.loc 1 205 0
 545 0112 0020     		movs	r0, #0
 546 0114 FFF7FEFF 		bl	A1_Write
 547              	.LVL83:
 206:main.c        ****                         A2_Write(1);
 548              		.loc 1 206 0
 549 0118 0120     		movs	r0, #1
 550 011a FFF7FEFF 		bl	A2_Write
 551              	.LVL84:
 207:main.c        ****                         B1_Write(1);
 552              		.loc 1 207 0
 553 011e 0120     		movs	r0, #1
 554 0120 FFF7FEFF 		bl	B1_Write
 555              	.LVL85:
 208:main.c        ****                         B2_Write(0);
 556              		.loc 1 208 0
 557 0124 0020     		movs	r0, #0
 558 0126 FFF7FEFF 		bl	B2_Write
 559              	.LVL86:
 209:main.c        ****                         CyDelay(hastighed);
 560              		.loc 1 209 0
 561 012a A068     		ldr	r0, [r4, #8]
 562 012c FFF7FEFF 		bl	CyDelay
 563              	.LVL87:
 210:main.c        ****                                                            
 211:main.c        ****                         //Step 3
 212:main.c        ****                         A1_Write(1);
 564              		.loc 1 212 0
 565 0130 0120     		movs	r0, #1
 566 0132 FFF7FEFF 		bl	A1_Write
 567              	.LVL88:
 213:main.c        ****                         A2_Write(1);
 568              		.loc 1 213 0
 569 0136 0120     		movs	r0, #1
 570 0138 FFF7FEFF 		bl	A2_Write
 571              	.LVL89:
 214:main.c        ****                         B1_Write(0);
 572              		.loc 1 214 0
 573 013c 0020     		movs	r0, #0
 574 013e FFF7FEFF 		bl	B1_Write
 575              	.LVL90:
 215:main.c        ****                         B2_Write(0);
 576              		.loc 1 215 0
 577 0142 0020     		movs	r0, #0
 578 0144 FFF7FEFF 		bl	B2_Write
 579              	.LVL91:
 216:main.c        ****                         CyDelay(hastighed);
 580              		.loc 1 216 0
 581 0148 A068     		ldr	r0, [r4, #8]
ARM GAS  C:\Users\andre\AppData\Local\Temp\ccMpuBIa.s 			page 15


 582 014a FFF7FEFF 		bl	CyDelay
 583              	.LVL92:
 217:main.c        ****                                     
 218:main.c        ****                                                          
 219:main.c        ****                         //Step 4
 220:main.c        ****                         A1_Write(1);
 584              		.loc 1 220 0
 585 014e 0120     		movs	r0, #1
 586 0150 FFF7FEFF 		bl	A1_Write
 587              	.LVL93:
 221:main.c        ****                         A2_Write(0);
 588              		.loc 1 221 0
 589 0154 0020     		movs	r0, #0
 590 0156 FFF7FEFF 		bl	A2_Write
 591              	.LVL94:
 222:main.c        ****                         B1_Write(0);
 592              		.loc 1 222 0
 593 015a 0020     		movs	r0, #0
 594 015c FFF7FEFF 		bl	B1_Write
 595              	.LVL95:
 223:main.c        ****                         B2_Write(1);
 596              		.loc 1 223 0
 597 0160 0120     		movs	r0, #1
 598 0162 FFF7FEFF 		bl	B2_Write
 599              	.LVL96:
 224:main.c        ****                         CyDelay(hastighed);
 600              		.loc 1 224 0
 601 0166 A068     		ldr	r0, [r4, #8]
 602 0168 FFF7FEFF 		bl	CyDelay
 603              	.LVL97:
 225:main.c        ****                         
 226:main.c        ****                         ledStatus = ! ledStatus;
 604              		.loc 1 226 0
 605 016c 207B     		ldrb	r0, [r4, #12]	@ zero_extendqisi2
 606 016e B0FA80F0 		clz	r0, r0
 607 0172 4009     		lsrs	r0, r0, #5
 608 0174 2073     		strb	r0, [r4, #12]
 227:main.c        ****                         LED_Write(ledStatus);
 609              		.loc 1 227 0
 610 0176 FFF7FEFF 		bl	LED_Write
 611              	.LVL98:
 228:main.c        ****                         
 229:main.c        ****                         if(step == 1)
 612              		.loc 1 229 0
 613 017a 6368     		ldr	r3, [r4, #4]
 614 017c 012B     		cmp	r3, #1
 615 017e 02D1     		bne	.L30
 230:main.c        ****                         {
 231:main.c        ****                           status = 0; 
 616              		.loc 1 231 0
 617 0180 0022     		movs	r2, #0
 618 0182 2260     		str	r2, [r4]
 232:main.c        ****                           step = 0;
 619              		.loc 1 232 0
 620 0184 6260     		str	r2, [r4, #4]
 621              	.L30:
 195:main.c        ****                     {
ARM GAS  C:\Users\andre\AppData\Local\Temp\ccMpuBIa.s 			page 16


 622              		.loc 1 195 0
 623 0186 594B     		ldr	r3, .L49+12
 624 0188 1B68     		ldr	r3, [r3]
 625 018a 022B     		cmp	r3, #2
 626 018c B1D0     		beq	.L31
 233:main.c        ****                         }
 234:main.c        ****                     }
 235:main.c        ****                     
 236:main.c        ****                     //Reset mod kortslutning
 237:main.c        ****                     A1_Write(0);
 627              		.loc 1 237 0
 628 018e 0020     		movs	r0, #0
 629 0190 FFF7FEFF 		bl	A1_Write
 630              	.LVL99:
 238:main.c        ****                     A2_Write(0);
 631              		.loc 1 238 0
 632 0194 0020     		movs	r0, #0
 633 0196 FFF7FEFF 		bl	A2_Write
 634              	.LVL100:
 239:main.c        ****                     B1_Write(0);
 635              		.loc 1 239 0
 636 019a 0020     		movs	r0, #0
 637 019c FFF7FEFF 		bl	B1_Write
 638              	.LVL101:
 240:main.c        ****                     B2_Write(0);
 639              		.loc 1 240 0
 640 01a0 0020     		movs	r0, #0
 641 01a2 FFF7FEFF 		bl	B2_Write
 642              	.LVL102:
 643 01a6 38E7     		b	.L24
 644              	.L46:
 241:main.c        ****                     
 242:main.c        ****             }
 243:main.c        ****             else if(stepMode == 2) //Half mode
 645              		.loc 1 243 0
 646 01a8 022B     		cmp	r3, #2
 647 01aa 40F03981 		bne	.L47
 648 01ae 85E0     		b	.L35
 649              	.L36:
 244:main.c        ****             {
 245:main.c        ****                 
 246:main.c        ****                 while(status == 1)//Kører forlæns
 247:main.c        ****                     {
 248:main.c        ****                         //Step 1
 249:main.c        ****                         A1_Write(0);
 650              		.loc 1 249 0
 651 01b0 0020     		movs	r0, #0
 652 01b2 FFF7FEFF 		bl	A1_Write
 653              	.LVL103:
 250:main.c        ****                         A2_Write(0);
 654              		.loc 1 250 0
 655 01b6 0020     		movs	r0, #0
 656 01b8 FFF7FEFF 		bl	A2_Write
 657              	.LVL104:
 251:main.c        ****                         B1_Write(0);
 658              		.loc 1 251 0
 659 01bc 0020     		movs	r0, #0
ARM GAS  C:\Users\andre\AppData\Local\Temp\ccMpuBIa.s 			page 17


 660 01be FFF7FEFF 		bl	B1_Write
 661              	.LVL105:
 252:main.c        ****                         B2_Write(1);
 662              		.loc 1 252 0
 663 01c2 0120     		movs	r0, #1
 664 01c4 FFF7FEFF 		bl	B2_Write
 665              	.LVL106:
 253:main.c        ****                         CyDelay(hastighed);
 666              		.loc 1 253 0
 667 01c8 484C     		ldr	r4, .L49+12
 668 01ca A068     		ldr	r0, [r4, #8]
 669 01cc FFF7FEFF 		bl	CyDelay
 670              	.LVL107:
 254:main.c        ****                                     
 255:main.c        ****                         //Step 2
 256:main.c        ****                         A1_Write(1);
 671              		.loc 1 256 0
 672 01d0 0120     		movs	r0, #1
 673 01d2 FFF7FEFF 		bl	A1_Write
 674              	.LVL108:
 257:main.c        ****                         A2_Write(0);
 675              		.loc 1 257 0
 676 01d6 0020     		movs	r0, #0
 677 01d8 FFF7FEFF 		bl	A2_Write
 678              	.LVL109:
 258:main.c        ****                         B1_Write(0);
 679              		.loc 1 258 0
 680 01dc 0020     		movs	r0, #0
 681 01de FFF7FEFF 		bl	B1_Write
 682              	.LVL110:
 259:main.c        ****                         B2_Write(1);
 683              		.loc 1 259 0
 684 01e2 0120     		movs	r0, #1
 685 01e4 FFF7FEFF 		bl	B2_Write
 686              	.LVL111:
 260:main.c        ****                         CyDelay(hastighed);
 687              		.loc 1 260 0
 688 01e8 A068     		ldr	r0, [r4, #8]
 689 01ea FFF7FEFF 		bl	CyDelay
 690              	.LVL112:
 261:main.c        ****                                     
 262:main.c        ****                         //Step 3
 263:main.c        ****                         A1_Write(1);
 691              		.loc 1 263 0
 692 01ee 0120     		movs	r0, #1
 693 01f0 FFF7FEFF 		bl	A1_Write
 694              	.LVL113:
 264:main.c        ****                         A2_Write(0);
 695              		.loc 1 264 0
 696 01f4 0020     		movs	r0, #0
 697 01f6 FFF7FEFF 		bl	A2_Write
 698              	.LVL114:
 265:main.c        ****                         B1_Write(0);
 699              		.loc 1 265 0
 700 01fa 0020     		movs	r0, #0
 701 01fc FFF7FEFF 		bl	B1_Write
 702              	.LVL115:
ARM GAS  C:\Users\andre\AppData\Local\Temp\ccMpuBIa.s 			page 18


 266:main.c        ****                         B2_Write(0);
 703              		.loc 1 266 0
 704 0200 0020     		movs	r0, #0
 705 0202 FFF7FEFF 		bl	B2_Write
 706              	.LVL116:
 267:main.c        ****                         CyDelay(hastighed);
 707              		.loc 1 267 0
 708 0206 A068     		ldr	r0, [r4, #8]
 709 0208 FFF7FEFF 		bl	CyDelay
 710              	.LVL117:
 268:main.c        ****                                    
 269:main.c        ****                         //Step 4
 270:main.c        ****                         A1_Write(1);
 711              		.loc 1 270 0
 712 020c 0120     		movs	r0, #1
 713 020e FFF7FEFF 		bl	A1_Write
 714              	.LVL118:
 271:main.c        ****                         A2_Write(1);
 715              		.loc 1 271 0
 716 0212 0120     		movs	r0, #1
 717 0214 FFF7FEFF 		bl	A2_Write
 718              	.LVL119:
 272:main.c        ****                         B1_Write(0);
 719              		.loc 1 272 0
 720 0218 0020     		movs	r0, #0
 721 021a FFF7FEFF 		bl	B1_Write
 722              	.LVL120:
 273:main.c        ****                         B2_Write(0);
 723              		.loc 1 273 0
 724 021e 0020     		movs	r0, #0
 725 0220 FFF7FEFF 		bl	B2_Write
 726              	.LVL121:
 274:main.c        ****                         CyDelay(hastighed);
 727              		.loc 1 274 0
 728 0224 A068     		ldr	r0, [r4, #8]
 729 0226 FFF7FEFF 		bl	CyDelay
 730              	.LVL122:
 275:main.c        ****                         
 276:main.c        ****                         //Step 5
 277:main.c        ****                         A1_Write(0);
 731              		.loc 1 277 0
 732 022a 0020     		movs	r0, #0
 733 022c FFF7FEFF 		bl	A1_Write
 734              	.LVL123:
 278:main.c        ****                         A2_Write(1);
 735              		.loc 1 278 0
 736 0230 0120     		movs	r0, #1
 737 0232 FFF7FEFF 		bl	A2_Write
 738              	.LVL124:
 279:main.c        ****                         B1_Write(0);
 739              		.loc 1 279 0
 740 0236 0020     		movs	r0, #0
 741 0238 FFF7FEFF 		bl	B1_Write
 742              	.LVL125:
 280:main.c        ****                         B2_Write(0);
 743              		.loc 1 280 0
 744 023c 0020     		movs	r0, #0
ARM GAS  C:\Users\andre\AppData\Local\Temp\ccMpuBIa.s 			page 19


 745 023e FFF7FEFF 		bl	B2_Write
 746              	.LVL126:
 281:main.c        ****                         CyDelay(hastighed);
 747              		.loc 1 281 0
 748 0242 A068     		ldr	r0, [r4, #8]
 749 0244 FFF7FEFF 		bl	CyDelay
 750              	.LVL127:
 282:main.c        ****                         
 283:main.c        ****                         //Step 6
 284:main.c        ****                         A1_Write(0);
 751              		.loc 1 284 0
 752 0248 0020     		movs	r0, #0
 753 024a FFF7FEFF 		bl	A1_Write
 754              	.LVL128:
 285:main.c        ****                         A2_Write(1);
 755              		.loc 1 285 0
 756 024e 0120     		movs	r0, #1
 757 0250 FFF7FEFF 		bl	A2_Write
 758              	.LVL129:
 286:main.c        ****                         B1_Write(1);
 759              		.loc 1 286 0
 760 0254 0120     		movs	r0, #1
 761 0256 FFF7FEFF 		bl	B1_Write
 762              	.LVL130:
 287:main.c        ****                         B2_Write(0);
 763              		.loc 1 287 0
 764 025a 0020     		movs	r0, #0
 765 025c FFF7FEFF 		bl	B2_Write
 766              	.LVL131:
 288:main.c        ****                         CyDelay(hastighed);
 767              		.loc 1 288 0
 768 0260 A068     		ldr	r0, [r4, #8]
 769 0262 FFF7FEFF 		bl	CyDelay
 770              	.LVL132:
 289:main.c        ****                                     
 290:main.c        ****                         //Step 7
 291:main.c        ****                         A1_Write(0);
 771              		.loc 1 291 0
 772 0266 0020     		movs	r0, #0
 773 0268 FFF7FEFF 		bl	A1_Write
 774              	.LVL133:
 292:main.c        ****                         A2_Write(0);
 775              		.loc 1 292 0
 776 026c 0020     		movs	r0, #0
 777 026e FFF7FEFF 		bl	A2_Write
 778              	.LVL134:
 293:main.c        ****                         B1_Write(1);
 779              		.loc 1 293 0
 780 0272 0120     		movs	r0, #1
 781 0274 FFF7FEFF 		bl	B1_Write
 782              	.LVL135:
 294:main.c        ****                         B2_Write(0);
 783              		.loc 1 294 0
 784 0278 0020     		movs	r0, #0
 785 027a FFF7FEFF 		bl	B2_Write
 786              	.LVL136:
 295:main.c        ****                         CyDelay(hastighed);
ARM GAS  C:\Users\andre\AppData\Local\Temp\ccMpuBIa.s 			page 20


 787              		.loc 1 295 0
 788 027e A068     		ldr	r0, [r4, #8]
 789 0280 FFF7FEFF 		bl	CyDelay
 790              	.LVL137:
 296:main.c        ****                                     
 297:main.c        ****                         //Step 8
 298:main.c        ****                         A1_Write(0);
 791              		.loc 1 298 0
 792 0284 0020     		movs	r0, #0
 793 0286 FFF7FEFF 		bl	A1_Write
 794              	.LVL138:
 299:main.c        ****                         A2_Write(0);
 795              		.loc 1 299 0
 796 028a 0020     		movs	r0, #0
 797 028c FFF7FEFF 		bl	A2_Write
 798              	.LVL139:
 300:main.c        ****                         B1_Write(1);
 799              		.loc 1 300 0
 800 0290 0120     		movs	r0, #1
 801 0292 FFF7FEFF 		bl	B1_Write
 802              	.LVL140:
 301:main.c        ****                         B2_Write(1);
 803              		.loc 1 301 0
 804 0296 0120     		movs	r0, #1
 805 0298 FFF7FEFF 		bl	B2_Write
 806              	.LVL141:
 302:main.c        ****                         CyDelay(hastighed);
 807              		.loc 1 302 0
 808 029c A068     		ldr	r0, [r4, #8]
 809 029e FFF7FEFF 		bl	CyDelay
 810              	.LVL142:
 303:main.c        ****                                    
 304:main.c        ****                                              
 305:main.c        ****                         ledStatus = ! ledStatus;
 811              		.loc 1 305 0
 812 02a2 207B     		ldrb	r0, [r4, #12]	@ zero_extendqisi2
 813 02a4 B0FA80F0 		clz	r0, r0
 814 02a8 4009     		lsrs	r0, r0, #5
 815 02aa 2073     		strb	r0, [r4, #12]
 306:main.c        ****                         LED_Write(ledStatus);
 816              		.loc 1 306 0
 817 02ac FFF7FEFF 		bl	LED_Write
 818              	.LVL143:
 307:main.c        ****                         
 308:main.c        ****                         if(step == 1)
 819              		.loc 1 308 0
 820 02b0 6368     		ldr	r3, [r4, #4]
 821 02b2 012B     		cmp	r3, #1
 822 02b4 02D1     		bne	.L35
 309:main.c        ****                         {
 310:main.c        ****                           status = 0;
 823              		.loc 1 310 0
 824 02b6 0022     		movs	r2, #0
 825 02b8 2260     		str	r2, [r4]
 311:main.c        ****                             step = 0;
 826              		.loc 1 311 0
 827 02ba 6260     		str	r2, [r4, #4]
ARM GAS  C:\Users\andre\AppData\Local\Temp\ccMpuBIa.s 			page 21


 828              	.L35:
 246:main.c        ****                     {
 829              		.loc 1 246 0
 830 02bc 0B4B     		ldr	r3, .L49+12
 831 02be 1B68     		ldr	r3, [r3]
 832 02c0 012B     		cmp	r3, #1
 833 02c2 3FF475AF 		beq	.L36
 312:main.c        ****                         }
 313:main.c        ****                     }
 314:main.c        ****                     
 315:main.c        ****                     //Reset mod kortslutning
 316:main.c        ****                     A1_Write(0);
 834              		.loc 1 316 0
 835 02c6 0020     		movs	r0, #0
 836 02c8 FFF7FEFF 		bl	A1_Write
 837              	.LVL144:
 317:main.c        ****                     A2_Write(0);
 838              		.loc 1 317 0
 839 02cc 0020     		movs	r0, #0
 840 02ce FFF7FEFF 		bl	A2_Write
 841              	.LVL145:
 318:main.c        ****                     B1_Write(0);
 842              		.loc 1 318 0
 843 02d2 0020     		movs	r0, #0
 844 02d4 FFF7FEFF 		bl	B1_Write
 845              	.LVL146:
 319:main.c        ****                     B2_Write(0);
 846              		.loc 1 319 0
 847 02d8 0020     		movs	r0, #0
 848 02da FFF7FEFF 		bl	B2_Write
 849              	.LVL147:
 320:main.c        ****                     
 321:main.c        ****                    while(status == 2) //Kører baglæns
 850              		.loc 1 321 0
 851 02de 8DE0     		b	.L38
 852              	.L50:
 853              		.align	2
 854              	.L49:
 855 02e0 00000000 		.word	UART_1_Rx_Handler
 856 02e4 14030000 		.word	.LC21
 857 02e8 00000000 		.word	.LANCHOR1
 858 02ec 00000000 		.word	.LANCHOR0
 859              	.L39:
 322:main.c        ****                     {
 323:main.c        ****                         //Step 1
 324:main.c        ****                         A1_Write(0);
 860              		.loc 1 324 0
 861 02f0 0020     		movs	r0, #0
 862 02f2 FFF7FEFF 		bl	A1_Write
 863              	.LVL148:
 325:main.c        ****                         A2_Write(0);
 864              		.loc 1 325 0
 865 02f6 0020     		movs	r0, #0
 866 02f8 FFF7FEFF 		bl	A2_Write
 867              	.LVL149:
 326:main.c        ****                         B1_Write(0);
 868              		.loc 1 326 0
ARM GAS  C:\Users\andre\AppData\Local\Temp\ccMpuBIa.s 			page 22


 869 02fc 0020     		movs	r0, #0
 870 02fe FFF7FEFF 		bl	B1_Write
 871              	.LVL150:
 327:main.c        ****                         B2_Write(1);
 872              		.loc 1 327 0
 873 0302 0120     		movs	r0, #1
 874 0304 FFF7FEFF 		bl	B2_Write
 875              	.LVL151:
 328:main.c        ****                         CyDelay(hastighed);
 876              		.loc 1 328 0
 877 0308 A24C     		ldr	r4, .L51
 878 030a A068     		ldr	r0, [r4, #8]
 879 030c FFF7FEFF 		bl	CyDelay
 880              	.LVL152:
 329:main.c        ****                                     
 330:main.c        ****                         //Step 2
 331:main.c        ****                         A1_Write(0);
 881              		.loc 1 331 0
 882 0310 0020     		movs	r0, #0
 883 0312 FFF7FEFF 		bl	A1_Write
 884              	.LVL153:
 332:main.c        ****                         A2_Write(0);
 885              		.loc 1 332 0
 886 0316 0020     		movs	r0, #0
 887 0318 FFF7FEFF 		bl	A2_Write
 888              	.LVL154:
 333:main.c        ****                         B1_Write(1);
 889              		.loc 1 333 0
 890 031c 0120     		movs	r0, #1
 891 031e FFF7FEFF 		bl	B1_Write
 892              	.LVL155:
 334:main.c        ****                         B2_Write(1);
 893              		.loc 1 334 0
 894 0322 0120     		movs	r0, #1
 895 0324 FFF7FEFF 		bl	B2_Write
 896              	.LVL156:
 335:main.c        ****                         CyDelay(hastighed);
 897              		.loc 1 335 0
 898 0328 A068     		ldr	r0, [r4, #8]
 899 032a FFF7FEFF 		bl	CyDelay
 900              	.LVL157:
 336:main.c        ****                                     
 337:main.c        ****                         //Step 3
 338:main.c        ****                         A1_Write(0);
 901              		.loc 1 338 0
 902 032e 0020     		movs	r0, #0
 903 0330 FFF7FEFF 		bl	A1_Write
 904              	.LVL158:
 339:main.c        ****                         A2_Write(0);
 905              		.loc 1 339 0
 906 0334 0020     		movs	r0, #0
 907 0336 FFF7FEFF 		bl	A2_Write
 908              	.LVL159:
 340:main.c        ****                         B1_Write(1);
 909              		.loc 1 340 0
 910 033a 0120     		movs	r0, #1
 911 033c FFF7FEFF 		bl	B1_Write
ARM GAS  C:\Users\andre\AppData\Local\Temp\ccMpuBIa.s 			page 23


 912              	.LVL160:
 341:main.c        ****                         B2_Write(0);
 913              		.loc 1 341 0
 914 0340 0020     		movs	r0, #0
 915 0342 FFF7FEFF 		bl	B2_Write
 916              	.LVL161:
 342:main.c        ****                         CyDelay(hastighed);
 917              		.loc 1 342 0
 918 0346 A068     		ldr	r0, [r4, #8]
 919 0348 FFF7FEFF 		bl	CyDelay
 920              	.LVL162:
 343:main.c        ****                                    
 344:main.c        ****                         //Step 4
 345:main.c        ****                         A1_Write(0);
 921              		.loc 1 345 0
 922 034c 0020     		movs	r0, #0
 923 034e FFF7FEFF 		bl	A1_Write
 924              	.LVL163:
 346:main.c        ****                         A2_Write(1);
 925              		.loc 1 346 0
 926 0352 0120     		movs	r0, #1
 927 0354 FFF7FEFF 		bl	A2_Write
 928              	.LVL164:
 347:main.c        ****                         B1_Write(1);
 929              		.loc 1 347 0
 930 0358 0120     		movs	r0, #1
 931 035a FFF7FEFF 		bl	B1_Write
 932              	.LVL165:
 348:main.c        ****                         B2_Write(0);
 933              		.loc 1 348 0
 934 035e 0020     		movs	r0, #0
 935 0360 FFF7FEFF 		bl	B2_Write
 936              	.LVL166:
 349:main.c        ****                         CyDelay(hastighed);
 937              		.loc 1 349 0
 938 0364 A068     		ldr	r0, [r4, #8]
 939 0366 FFF7FEFF 		bl	CyDelay
 940              	.LVL167:
 350:main.c        ****                         
 351:main.c        ****                         //Step 5
 352:main.c        ****                         A1_Write(0);
 941              		.loc 1 352 0
 942 036a 0020     		movs	r0, #0
 943 036c FFF7FEFF 		bl	A1_Write
 944              	.LVL168:
 353:main.c        ****                         A2_Write(1);
 945              		.loc 1 353 0
 946 0370 0120     		movs	r0, #1
 947 0372 FFF7FEFF 		bl	A2_Write
 948              	.LVL169:
 354:main.c        ****                         B1_Write(0);
 949              		.loc 1 354 0
 950 0376 0020     		movs	r0, #0
 951 0378 FFF7FEFF 		bl	B1_Write
 952              	.LVL170:
 355:main.c        ****                         B2_Write(0);
 953              		.loc 1 355 0
ARM GAS  C:\Users\andre\AppData\Local\Temp\ccMpuBIa.s 			page 24


 954 037c 0020     		movs	r0, #0
 955 037e FFF7FEFF 		bl	B2_Write
 956              	.LVL171:
 356:main.c        ****                         CyDelay(hastighed);
 957              		.loc 1 356 0
 958 0382 A068     		ldr	r0, [r4, #8]
 959 0384 FFF7FEFF 		bl	CyDelay
 960              	.LVL172:
 357:main.c        ****                                     
 358:main.c        ****                         //Step 6
 359:main.c        ****                         A1_Write(1);
 961              		.loc 1 359 0
 962 0388 0120     		movs	r0, #1
 963 038a FFF7FEFF 		bl	A1_Write
 964              	.LVL173:
 360:main.c        ****                         A2_Write(1);
 965              		.loc 1 360 0
 966 038e 0120     		movs	r0, #1
 967 0390 FFF7FEFF 		bl	A2_Write
 968              	.LVL174:
 361:main.c        ****                         B1_Write(0);
 969              		.loc 1 361 0
 970 0394 0020     		movs	r0, #0
 971 0396 FFF7FEFF 		bl	B1_Write
 972              	.LVL175:
 362:main.c        ****                         B2_Write(0);
 973              		.loc 1 362 0
 974 039a 0020     		movs	r0, #0
 975 039c FFF7FEFF 		bl	B2_Write
 976              	.LVL176:
 363:main.c        ****                         CyDelay(hastighed);
 977              		.loc 1 363 0
 978 03a0 A068     		ldr	r0, [r4, #8]
 979 03a2 FFF7FEFF 		bl	CyDelay
 980              	.LVL177:
 364:main.c        ****                                     
 365:main.c        ****                         //Step 7
 366:main.c        ****                         A1_Write(1);
 981              		.loc 1 366 0
 982 03a6 0120     		movs	r0, #1
 983 03a8 FFF7FEFF 		bl	A1_Write
 984              	.LVL178:
 367:main.c        ****                         A2_Write(0);
 985              		.loc 1 367 0
 986 03ac 0020     		movs	r0, #0
 987 03ae FFF7FEFF 		bl	A2_Write
 988              	.LVL179:
 368:main.c        ****                         B1_Write(0);
 989              		.loc 1 368 0
 990 03b2 0020     		movs	r0, #0
 991 03b4 FFF7FEFF 		bl	B1_Write
 992              	.LVL180:
 369:main.c        ****                         B2_Write(0);
 993              		.loc 1 369 0
 994 03b8 0020     		movs	r0, #0
 995 03ba FFF7FEFF 		bl	B2_Write
 996              	.LVL181:
ARM GAS  C:\Users\andre\AppData\Local\Temp\ccMpuBIa.s 			page 25


 370:main.c        ****                         CyDelay(hastighed);
 997              		.loc 1 370 0
 998 03be A068     		ldr	r0, [r4, #8]
 999 03c0 FFF7FEFF 		bl	CyDelay
 1000              	.LVL182:
 371:main.c        ****                                    
 372:main.c        ****                         //Step 8
 373:main.c        ****                         A1_Write(1);
 1001              		.loc 1 373 0
 1002 03c4 0120     		movs	r0, #1
 1003 03c6 FFF7FEFF 		bl	A1_Write
 1004              	.LVL183:
 374:main.c        ****                         A2_Write(0);
 1005              		.loc 1 374 0
 1006 03ca 0020     		movs	r0, #0
 1007 03cc FFF7FEFF 		bl	A2_Write
 1008              	.LVL184:
 375:main.c        ****                         B1_Write(0);
 1009              		.loc 1 375 0
 1010 03d0 0020     		movs	r0, #0
 1011 03d2 FFF7FEFF 		bl	B1_Write
 1012              	.LVL185:
 376:main.c        ****                         B2_Write(1);
 1013              		.loc 1 376 0
 1014 03d6 0120     		movs	r0, #1
 1015 03d8 FFF7FEFF 		bl	B2_Write
 1016              	.LVL186:
 377:main.c        ****                         CyDelay(hastighed);
 1017              		.loc 1 377 0
 1018 03dc A068     		ldr	r0, [r4, #8]
 1019 03de FFF7FEFF 		bl	CyDelay
 1020              	.LVL187:
 378:main.c        ****                         
 379:main.c        ****                         ledStatus = ! ledStatus;
 1021              		.loc 1 379 0
 1022 03e2 207B     		ldrb	r0, [r4, #12]	@ zero_extendqisi2
 1023 03e4 B0FA80F0 		clz	r0, r0
 1024 03e8 4009     		lsrs	r0, r0, #5
 1025 03ea 2073     		strb	r0, [r4, #12]
 380:main.c        ****                         LED_Write(ledStatus);
 1026              		.loc 1 380 0
 1027 03ec FFF7FEFF 		bl	LED_Write
 1028              	.LVL188:
 381:main.c        ****                         
 382:main.c        ****                         if(step == 1)
 1029              		.loc 1 382 0
 1030 03f0 6368     		ldr	r3, [r4, #4]
 1031 03f2 012B     		cmp	r3, #1
 1032 03f4 02D1     		bne	.L38
 383:main.c        ****                         {
 384:main.c        ****                           status = 0;   
 1033              		.loc 1 384 0
 1034 03f6 0022     		movs	r2, #0
 1035 03f8 2260     		str	r2, [r4]
 385:main.c        ****                             step = 0;
 1036              		.loc 1 385 0
 1037 03fa 6260     		str	r2, [r4, #4]
ARM GAS  C:\Users\andre\AppData\Local\Temp\ccMpuBIa.s 			page 26


 1038              	.L38:
 321:main.c        ****                     {
 1039              		.loc 1 321 0
 1040 03fc 654B     		ldr	r3, .L51
 1041 03fe 1B68     		ldr	r3, [r3]
 1042 0400 022B     		cmp	r3, #2
 1043 0402 3FF475AF 		beq	.L39
 386:main.c        ****                         }
 387:main.c        ****                     }
 388:main.c        ****                     
 389:main.c        ****                     //Reset mod kortslutning
 390:main.c        ****                     A1_Write(0);
 1044              		.loc 1 390 0
 1045 0406 0020     		movs	r0, #0
 1046 0408 FFF7FEFF 		bl	A1_Write
 1047              	.LVL189:
 391:main.c        ****                     A2_Write(0);
 1048              		.loc 1 391 0
 1049 040c 0020     		movs	r0, #0
 1050 040e FFF7FEFF 		bl	A2_Write
 1051              	.LVL190:
 392:main.c        ****                     B1_Write(0);
 1052              		.loc 1 392 0
 1053 0412 0020     		movs	r0, #0
 1054 0414 FFF7FEFF 		bl	B1_Write
 1055              	.LVL191:
 393:main.c        ****                     B2_Write(0);
 1056              		.loc 1 393 0
 1057 0418 0020     		movs	r0, #0
 1058 041a FFF7FEFF 		bl	B2_Write
 1059              	.LVL192:
 1060 041e FCE5     		b	.L24
 1061              	.L47:
 394:main.c        ****                 
 395:main.c        ****             }
 396:main.c        ****             else if(stepMode == 3) //wave mode
 1062              		.loc 1 396 0
 1063 0420 032B     		cmp	r3, #3
 1064 0422 7FF4FAAD 		bne	.L24
 1065 0426 49E0     		b	.L41
 1066              	.L42:
 397:main.c        ****             {
 398:main.c        ****                  while(status == 1)//Kører forlæns
 399:main.c        ****                     {
 400:main.c        ****                         //Step 1
 401:main.c        ****                         A1_Write(0);
 1067              		.loc 1 401 0
 1068 0428 0020     		movs	r0, #0
 1069 042a FFF7FEFF 		bl	A1_Write
 1070              	.LVL193:
 402:main.c        ****                         A2_Write(0);
 1071              		.loc 1 402 0
 1072 042e 0020     		movs	r0, #0
 1073 0430 FFF7FEFF 		bl	A2_Write
 1074              	.LVL194:
 403:main.c        ****                         B1_Write(0);
 1075              		.loc 1 403 0
ARM GAS  C:\Users\andre\AppData\Local\Temp\ccMpuBIa.s 			page 27


 1076 0434 0020     		movs	r0, #0
 1077 0436 FFF7FEFF 		bl	B1_Write
 1078              	.LVL195:
 404:main.c        ****                         B2_Write(1);
 1079              		.loc 1 404 0
 1080 043a 0120     		movs	r0, #1
 1081 043c FFF7FEFF 		bl	B2_Write
 1082              	.LVL196:
 405:main.c        ****                         CyDelay(hastighed);
 1083              		.loc 1 405 0
 1084 0440 544C     		ldr	r4, .L51
 1085 0442 A068     		ldr	r0, [r4, #8]
 1086 0444 FFF7FEFF 		bl	CyDelay
 1087              	.LVL197:
 406:main.c        ****                         
 407:main.c        ****                         //Step 2
 408:main.c        ****                         A1_Write(1);
 1088              		.loc 1 408 0
 1089 0448 0120     		movs	r0, #1
 1090 044a FFF7FEFF 		bl	A1_Write
 1091              	.LVL198:
 409:main.c        ****                         A2_Write(0);
 1092              		.loc 1 409 0
 1093 044e 0020     		movs	r0, #0
 1094 0450 FFF7FEFF 		bl	A2_Write
 1095              	.LVL199:
 410:main.c        ****                         B1_Write(0);
 1096              		.loc 1 410 0
 1097 0454 0020     		movs	r0, #0
 1098 0456 FFF7FEFF 		bl	B1_Write
 1099              	.LVL200:
 411:main.c        ****                         B2_Write(0);
 1100              		.loc 1 411 0
 1101 045a 0020     		movs	r0, #0
 1102 045c FFF7FEFF 		bl	B2_Write
 1103              	.LVL201:
 412:main.c        ****                         CyDelay(hastighed);
 1104              		.loc 1 412 0
 1105 0460 A068     		ldr	r0, [r4, #8]
 1106 0462 FFF7FEFF 		bl	CyDelay
 1107              	.LVL202:
 413:main.c        ****                                                            
 414:main.c        ****                         //Step 3
 415:main.c        ****                         A1_Write(0);
 1108              		.loc 1 415 0
 1109 0466 0020     		movs	r0, #0
 1110 0468 FFF7FEFF 		bl	A1_Write
 1111              	.LVL203:
 416:main.c        ****                         A2_Write(1);
 1112              		.loc 1 416 0
 1113 046c 0120     		movs	r0, #1
 1114 046e FFF7FEFF 		bl	A2_Write
 1115              	.LVL204:
 417:main.c        ****                         B1_Write(0);
 1116              		.loc 1 417 0
 1117 0472 0020     		movs	r0, #0
 1118 0474 FFF7FEFF 		bl	B1_Write
ARM GAS  C:\Users\andre\AppData\Local\Temp\ccMpuBIa.s 			page 28


 1119              	.LVL205:
 418:main.c        ****                         B2_Write(0);
 1120              		.loc 1 418 0
 1121 0478 0020     		movs	r0, #0
 1122 047a FFF7FEFF 		bl	B2_Write
 1123              	.LVL206:
 419:main.c        ****                         CyDelay(hastighed);
 1124              		.loc 1 419 0
 1125 047e A068     		ldr	r0, [r4, #8]
 1126 0480 FFF7FEFF 		bl	CyDelay
 1127              	.LVL207:
 420:main.c        ****                                     
 421:main.c        ****                                                          
 422:main.c        ****                         //Step 4
 423:main.c        ****                         A1_Write(0);
 1128              		.loc 1 423 0
 1129 0484 0020     		movs	r0, #0
 1130 0486 FFF7FEFF 		bl	A1_Write
 1131              	.LVL208:
 424:main.c        ****                         A2_Write(0);
 1132              		.loc 1 424 0
 1133 048a 0020     		movs	r0, #0
 1134 048c FFF7FEFF 		bl	A2_Write
 1135              	.LVL209:
 425:main.c        ****                         B1_Write(1);
 1136              		.loc 1 425 0
 1137 0490 0120     		movs	r0, #1
 1138 0492 FFF7FEFF 		bl	B1_Write
 1139              	.LVL210:
 426:main.c        ****                         B2_Write(0);
 1140              		.loc 1 426 0
 1141 0496 0020     		movs	r0, #0
 1142 0498 FFF7FEFF 		bl	B2_Write
 1143              	.LVL211:
 427:main.c        ****                         CyDelay(hastighed);
 1144              		.loc 1 427 0
 1145 049c A068     		ldr	r0, [r4, #8]
 1146 049e FFF7FEFF 		bl	CyDelay
 1147              	.LVL212:
 428:main.c        ****                         
 429:main.c        ****                         ledStatus = ! ledStatus;
 1148              		.loc 1 429 0
 1149 04a2 207B     		ldrb	r0, [r4, #12]	@ zero_extendqisi2
 1150 04a4 B0FA80F0 		clz	r0, r0
 1151 04a8 4009     		lsrs	r0, r0, #5
 1152 04aa 2073     		strb	r0, [r4, #12]
 430:main.c        ****                         LED_Write(ledStatus);
 1153              		.loc 1 430 0
 1154 04ac FFF7FEFF 		bl	LED_Write
 1155              	.LVL213:
 431:main.c        ****                         
 432:main.c        ****                         if(step == 1)
 1156              		.loc 1 432 0
 1157 04b0 6368     		ldr	r3, [r4, #4]
 1158 04b2 012B     		cmp	r3, #1
 1159 04b4 02D1     		bne	.L41
 433:main.c        ****                         {
ARM GAS  C:\Users\andre\AppData\Local\Temp\ccMpuBIa.s 			page 29


 434:main.c        ****                           status = 0;   
 1160              		.loc 1 434 0
 1161 04b6 0022     		movs	r2, #0
 1162 04b8 2260     		str	r2, [r4]
 435:main.c        ****                             step = 0;
 1163              		.loc 1 435 0
 1164 04ba 6260     		str	r2, [r4, #4]
 1165              	.L41:
 398:main.c        ****                     {
 1166              		.loc 1 398 0
 1167 04bc 354B     		ldr	r3, .L51
 1168 04be 1B68     		ldr	r3, [r3]
 1169 04c0 012B     		cmp	r3, #1
 1170 04c2 B1D0     		beq	.L42
 436:main.c        ****                         }
 437:main.c        ****                     }
 438:main.c        ****                     
 439:main.c        ****                     //Reset mod kortslutning
 440:main.c        ****                     A1_Write(0);
 1171              		.loc 1 440 0
 1172 04c4 0020     		movs	r0, #0
 1173 04c6 FFF7FEFF 		bl	A1_Write
 1174              	.LVL214:
 441:main.c        ****                     A2_Write(0);
 1175              		.loc 1 441 0
 1176 04ca 0020     		movs	r0, #0
 1177 04cc FFF7FEFF 		bl	A2_Write
 1178              	.LVL215:
 442:main.c        ****                     B1_Write(0);
 1179              		.loc 1 442 0
 1180 04d0 0020     		movs	r0, #0
 1181 04d2 FFF7FEFF 		bl	B1_Write
 1182              	.LVL216:
 443:main.c        ****                     B2_Write(0);
 1183              		.loc 1 443 0
 1184 04d6 0020     		movs	r0, #0
 1185 04d8 FFF7FEFF 		bl	B2_Write
 1186              	.LVL217:
 444:main.c        ****                     
 445:main.c        ****                    while(status == 2) //Kører baglæns
 1187              		.loc 1 445 0
 1188 04dc 49E0     		b	.L44
 1189              	.L45:
 446:main.c        ****                     {
 447:main.c        ****                         //Step 1
 448:main.c        ****                         A1_Write(0);
 1190              		.loc 1 448 0
 1191 04de 0020     		movs	r0, #0
 1192 04e0 FFF7FEFF 		bl	A1_Write
 1193              	.LVL218:
 449:main.c        ****                         A2_Write(0);
 1194              		.loc 1 449 0
 1195 04e4 0020     		movs	r0, #0
 1196 04e6 FFF7FEFF 		bl	A2_Write
 1197              	.LVL219:
 450:main.c        ****                         B1_Write(0);
 1198              		.loc 1 450 0
ARM GAS  C:\Users\andre\AppData\Local\Temp\ccMpuBIa.s 			page 30


 1199 04ea 0020     		movs	r0, #0
 1200 04ec FFF7FEFF 		bl	B1_Write
 1201              	.LVL220:
 451:main.c        ****                         B2_Write(1);
 1202              		.loc 1 451 0
 1203 04f0 0120     		movs	r0, #1
 1204 04f2 FFF7FEFF 		bl	B2_Write
 1205              	.LVL221:
 452:main.c        ****                         CyDelay(hastighed);
 1206              		.loc 1 452 0
 1207 04f6 274C     		ldr	r4, .L51
 1208 04f8 A068     		ldr	r0, [r4, #8]
 1209 04fa FFF7FEFF 		bl	CyDelay
 1210              	.LVL222:
 453:main.c        ****                         
 454:main.c        ****                         //Step 2
 455:main.c        ****                         A1_Write(0);
 1211              		.loc 1 455 0
 1212 04fe 0020     		movs	r0, #0
 1213 0500 FFF7FEFF 		bl	A1_Write
 1214              	.LVL223:
 456:main.c        ****                         A2_Write(0);
 1215              		.loc 1 456 0
 1216 0504 0020     		movs	r0, #0
 1217 0506 FFF7FEFF 		bl	A2_Write
 1218              	.LVL224:
 457:main.c        ****                         B1_Write(1);
 1219              		.loc 1 457 0
 1220 050a 0120     		movs	r0, #1
 1221 050c FFF7FEFF 		bl	B1_Write
 1222              	.LVL225:
 458:main.c        ****                         B2_Write(0);
 1223              		.loc 1 458 0
 1224 0510 0020     		movs	r0, #0
 1225 0512 FFF7FEFF 		bl	B2_Write
 1226              	.LVL226:
 459:main.c        ****                         CyDelay(hastighed);
 1227              		.loc 1 459 0
 1228 0516 A068     		ldr	r0, [r4, #8]
 1229 0518 FFF7FEFF 		bl	CyDelay
 1230              	.LVL227:
 460:main.c        ****                                                            
 461:main.c        ****                         //Step 3
 462:main.c        ****                         A1_Write(0);
 1231              		.loc 1 462 0
 1232 051c 0020     		movs	r0, #0
 1233 051e FFF7FEFF 		bl	A1_Write
 1234              	.LVL228:
 463:main.c        ****                         A2_Write(1);
 1235              		.loc 1 463 0
 1236 0522 0120     		movs	r0, #1
 1237 0524 FFF7FEFF 		bl	A2_Write
 1238              	.LVL229:
 464:main.c        ****                         B1_Write(0);
 1239              		.loc 1 464 0
 1240 0528 0020     		movs	r0, #0
 1241 052a FFF7FEFF 		bl	B1_Write
ARM GAS  C:\Users\andre\AppData\Local\Temp\ccMpuBIa.s 			page 31


 1242              	.LVL230:
 465:main.c        ****                         B2_Write(0);
 1243              		.loc 1 465 0
 1244 052e 0020     		movs	r0, #0
 1245 0530 FFF7FEFF 		bl	B2_Write
 1246              	.LVL231:
 466:main.c        ****                         CyDelay(hastighed);
 1247              		.loc 1 466 0
 1248 0534 A068     		ldr	r0, [r4, #8]
 1249 0536 FFF7FEFF 		bl	CyDelay
 1250              	.LVL232:
 467:main.c        ****                                     
 468:main.c        ****                                                          
 469:main.c        ****                         //Step 4
 470:main.c        ****                         A1_Write(1);
 1251              		.loc 1 470 0
 1252 053a 0120     		movs	r0, #1
 1253 053c FFF7FEFF 		bl	A1_Write
 1254              	.LVL233:
 471:main.c        ****                         A2_Write(0);
 1255              		.loc 1 471 0
 1256 0540 0020     		movs	r0, #0
 1257 0542 FFF7FEFF 		bl	A2_Write
 1258              	.LVL234:
 472:main.c        ****                         B1_Write(0);
 1259              		.loc 1 472 0
 1260 0546 0020     		movs	r0, #0
 1261 0548 FFF7FEFF 		bl	B1_Write
 1262              	.LVL235:
 473:main.c        ****                         B2_Write(0);
 1263              		.loc 1 473 0
 1264 054c 0020     		movs	r0, #0
 1265 054e FFF7FEFF 		bl	B2_Write
 1266              	.LVL236:
 474:main.c        ****                         CyDelay(hastighed);
 1267              		.loc 1 474 0
 1268 0552 A068     		ldr	r0, [r4, #8]
 1269 0554 FFF7FEFF 		bl	CyDelay
 1270              	.LVL237:
 475:main.c        ****                         
 476:main.c        ****                         ledStatus = ! ledStatus;
 1271              		.loc 1 476 0
 1272 0558 207B     		ldrb	r0, [r4, #12]	@ zero_extendqisi2
 1273 055a B0FA80F0 		clz	r0, r0
 1274 055e 4009     		lsrs	r0, r0, #5
 1275 0560 2073     		strb	r0, [r4, #12]
 477:main.c        ****                         LED_Write(ledStatus);
 1276              		.loc 1 477 0
 1277 0562 FFF7FEFF 		bl	LED_Write
 1278              	.LVL238:
 478:main.c        ****                         
 479:main.c        ****                         if(step == 1)
 1279              		.loc 1 479 0
 1280 0566 6368     		ldr	r3, [r4, #4]
 1281 0568 012B     		cmp	r3, #1
 1282 056a 02D1     		bne	.L44
 480:main.c        ****                         {
ARM GAS  C:\Users\andre\AppData\Local\Temp\ccMpuBIa.s 			page 32


 481:main.c        ****                           status = 0;   
 1283              		.loc 1 481 0
 1284 056c 0022     		movs	r2, #0
 1285 056e 2260     		str	r2, [r4]
 482:main.c        ****                             step = 0;
 1286              		.loc 1 482 0
 1287 0570 6260     		str	r2, [r4, #4]
 1288              	.L44:
 445:main.c        ****                     {
 1289              		.loc 1 445 0
 1290 0572 084B     		ldr	r3, .L51
 1291 0574 1B68     		ldr	r3, [r3]
 1292 0576 022B     		cmp	r3, #2
 1293 0578 B1D0     		beq	.L45
 483:main.c        ****                         }
 484:main.c        ****                     }
 485:main.c        ****                     
 486:main.c        ****                     //Reset mod kortslutning
 487:main.c        ****                     A1_Write(0);
 1294              		.loc 1 487 0
 1295 057a 0020     		movs	r0, #0
 1296 057c FFF7FEFF 		bl	A1_Write
 1297              	.LVL239:
 488:main.c        ****                     A2_Write(0);
 1298              		.loc 1 488 0
 1299 0580 0020     		movs	r0, #0
 1300 0582 FFF7FEFF 		bl	A2_Write
 1301              	.LVL240:
 489:main.c        ****                     B1_Write(0);
 1302              		.loc 1 489 0
 1303 0586 0020     		movs	r0, #0
 1304 0588 FFF7FEFF 		bl	B1_Write
 1305              	.LVL241:
 490:main.c        ****                     B2_Write(0);
 1306              		.loc 1 490 0
 1307 058c 0020     		movs	r0, #0
 1308 058e FFF7FEFF 		bl	B2_Write
 1309              	.LVL242:
 1310 0592 42E5     		b	.L24
 1311              	.L52:
 1312              		.align	2
 1313              	.L51:
 1314 0594 00000000 		.word	.LANCHOR0
 1315              		.cfi_endproc
 1316              	.LFE65:
 1317              		.size	main, .-main
 1318              		.global	step
 1319              		.global	ledStatus
 1320              		.global	stepMode
 1321              		.global	hastighed
 1322              		.global	status
 1323              		.data
 1324              		.align	2
 1325              		.set	.LANCHOR1,. + 0
 1326              		.type	stepMode, %object
 1327              		.size	stepMode, 4
 1328              	stepMode:
ARM GAS  C:\Users\andre\AppData\Local\Temp\ccMpuBIa.s 			page 33


 1329 0000 01000000 		.word	1
 1330              		.section	.rodata.str1.4,"aMS",%progbits,1
 1331              		.align	2
 1332              	.LC0:
 1333 0000 0A4D6F74 		.ascii	"\012Motor Fremad \015 \012\000"
 1333      6F722046 
 1333      72656D61 
 1333      64200D20 
 1333      0A00
 1334 0012 0000     		.space	2
 1335              	.LC1:
 1336 0014 0A4D6F74 		.ascii	"\012Motor Tilbage \015 \012\000"
 1336      6F722054 
 1336      696C6261 
 1336      6765200D 
 1336      200A00
 1337 0027 00       		.space	1
 1338              	.LC2:
 1339 0028 0A4D6F74 		.ascii	"\012Motor Stoppet \015 \012\000"
 1339      6F722053 
 1339      746F7070 
 1339      6574200D 
 1339      200A00
 1340 003b 00       		.space	1
 1341              	.LC3:
 1342 003c 0A4D6F74 		.ascii	"\012Motor mode: Half mode \015 \012\000"
 1342      6F72206D 
 1342      6F64653A 
 1342      2048616C 
 1342      66206D6F 
 1343 0057 00       		.space	1
 1344              	.LC4:
 1345 0058 0A4D6F74 		.ascii	"\012Motor mode: Full mode \015 \012\000"
 1345      6F72206D 
 1345      6F64653A 
 1345      2046756C 
 1345      6C206D6F 
 1346 0073 00       		.space	1
 1347              	.LC5:
 1348 0074 0A4D6F74 		.ascii	"\012Motor mode: wave mode \015 \012\000"
 1348      6F72206D 
 1348      6F64653A 
 1348      20776176 
 1348      65206D6F 
 1349 008f 00       		.space	1
 1350              	.LC6:
 1351 0090 0A546167 		.ascii	"\012Tager en enkelt omgang, ved naeste start. \015 "
 1351      65722065 
 1351      6E20656E 
 1351      6B656C74 
 1351      206F6D67 
 1352 00bd 0A00     		.ascii	"\012\000"
 1353 00bf 00       		.space	1
 1354              	.LC7:
 1355 00c0 0A4D6F74 		.ascii	"\012Motor hastighed: Bro der teanker \015 \012\000"
 1355      6F722068 
 1355      61737469 
ARM GAS  C:\Users\andre\AppData\Local\Temp\ccMpuBIa.s 			page 34


 1355      67686564 
 1355      3A204272 
 1356 00e6 0000     		.space	2
 1357              	.LC8:
 1358 00e8 0A4D6F74 		.ascii	"\012Motor hastighed: Slepping Snorlaks \015 \012\000"
 1358      6F722068 
 1358      61737469 
 1358      67686564 
 1358      3A20536C 
 1359              	.LC9:
 1360 0110 0A4D6F74 		.ascii	"\012Motor hastighed: Andreas om morgen \015 \012\000"
 1360      6F722068 
 1360      61737469 
 1360      67686564 
 1360      3A20416E 
 1361              	.LC10:
 1362 0138 0A4D6F74 		.ascii	"\012Motor hastighed: Vores forleaser undervisning \015"
 1362      6F722068 
 1362      61737469 
 1362      67686564 
 1362      3A20566F 
 1363 0168 200A00   		.ascii	" \012\000"
 1364 016b 00       		.space	1
 1365              	.LC11:
 1366 016c 0A4D6F74 		.ascii	"\012Motor hastighed: Normal \015 \012\000"
 1366      6F722068 
 1366      61737469 
 1366      67686564 
 1366      3A204E6F 
 1367 0189 000000   		.space	3
 1368              	.LC12:
 1369 018c 0A4D6F74 		.ascii	"\012Motor hastighed: LOL \015 \012\000"
 1369      6F722068 
 1369      61737469 
 1369      67686564 
 1369      3A204C4F 
 1370 01a6 0000     		.space	2
 1371              	.LC13:
 1372 01a8 0A4D6F74 		.ascii	"\012Motor hastighed: CAPTAIN ROEDVIN \015 \012\000"
 1372      6F722068 
 1372      61737469 
 1372      67686564 
 1372      3A204341 
 1373 01ce 0000     		.space	2
 1374              	.LC14:
 1375 01d0 0A4D6F74 		.ascii	"\012Motor hastighed: Kasper paa speed \015 \012\000"
 1375      6F722068 
 1375      61737469 
 1375      67686564 
 1375      3A204B61 
 1376 01f7 00       		.space	1
 1377              	.LC15:
 1378 01f8 0A4D6F74 		.ascii	"\012Motor hastighed: Full gadafi \015 \012\000"
 1378      6F722068 
 1378      61737469 
 1378      67686564 
 1378      3A204675 
ARM GAS  C:\Users\andre\AppData\Local\Temp\ccMpuBIa.s 			page 35


 1379 021a 0000     		.space	2
 1380              	.LC16:
 1381 021c 0A4D6F74 		.ascii	"\012Motor hastighed: Nicklas paa Tinder \015 \012\000"
 1381      6F722068 
 1381      61737469 
 1381      67686564 
 1381      3A204E69 
 1382 0245 000000   		.space	3
 1383              	.LC17:
 1384 0248 0A200A20 		.ascii	"\012 \012 \012HELP1: Du kan brug 1 til 9 og 0 for h"
 1384      0A48454C 
 1384      50313A20 
 1384      4475206B 
 1384      616E2062 
 1385 0272 61737469 		.ascii	"astigheder. \015 \012\000"
 1385      67686564 
 1385      65722E20 
 1385      0D200A00 
 1386 0282 0000     		.space	2
 1387              	.LC18:
 1388 0284 48454C50 		.ascii	"HELP2: Q og E og W for half, full og wave mode. \015"
 1388      323A2051 
 1388      206F6720 
 1388      45206F67 
 1388      20572066 
 1389 02b5 200A00   		.ascii	" \012\000"
 1390              	.LC19:
 1391 02b8 48454C50 		.ascii	"HELP3: z for at tage en enkel omgang. \015 \012\000"
 1391      333A207A 
 1391      20666F72 
 1391      20617420 
 1391      74616765 
 1392 02e2 0000     		.space	2
 1393              	.LC20:
 1394 02e4 48454C50 		.ascii	"HELP4: A og D er for fremad og bakgear. \015 \012 \012"
 1394      343A2041 
 1394      206F6720 
 1394      44206572 
 1394      20666F72 
 1395 0311 200A00   		.ascii	" \012\000"
 1396              	.LC21:
 1397 0314 4170706C 		.ascii	"Application started\015\012\000"
 1397      69636174 
 1397      696F6E20 
 1397      73746172 
 1397      7465640D 
 1398              		.bss
 1399              		.align	2
 1400              		.set	.LANCHOR0,. + 0
 1401              		.type	status, %object
 1402              		.size	status, 4
 1403              	status:
 1404 0000 00000000 		.space	4
 1405              		.type	step, %object
 1406              		.size	step, 4
 1407              	step:
 1408 0004 00000000 		.space	4
ARM GAS  C:\Users\andre\AppData\Local\Temp\ccMpuBIa.s 			page 36


 1409              		.type	hastighed, %object
 1410              		.size	hastighed, 4
 1411              	hastighed:
 1412 0008 00000000 		.space	4
 1413              		.type	ledStatus, %object
 1414              		.size	ledStatus, 1
 1415              	ledStatus:
 1416 000c 00       		.space	1
 1417              		.text
 1418              	.Letext0:
 1419              		.file 2 "d:\\program files (x86)\\cypress\\psoc creator\\4.1\\psoc creator\\import\\gnu\\arm\\5.4.
 1420              		.file 3 "d:\\program files (x86)\\cypress\\psoc creator\\4.1\\psoc creator\\import\\gnu\\arm\\5.4.
 1421              		.file 4 "Generated_Source\\PSoC5/core_cm3.h"
 1422              		.file 5 "Generated_Source\\PSoC5/UART_1.h"
 1423              		.file 6 "Generated_Source\\PSoC5/LED.h"
 1424              		.file 7 "Generated_Source\\PSoC5/isr_UART_1_RX.h"
 1425              		.file 8 "Generated_Source\\PSoC5/A1.h"
 1426              		.file 9 "Generated_Source\\PSoC5/A2.h"
 1427              		.file 10 "Generated_Source\\PSoC5/B1.h"
 1428              		.file 11 "Generated_Source\\PSoC5/B2.h"
 1429              		.file 12 "Generated_Source\\PSoC5/CyLib.h"